(lp0
(dp1
S'left_enc'
p2
I0
sS'euler_z'
p3
F90.4375
sS'right_enc'
p4
I0
sS'mag_y'
p5
F-59.6875
sS'mag_x'
p6
F50.375
sS'mag_z'
p7
F-43.375
sS'accel_z'
p8
F-0.4
sS'accel_x'
p9
F-0.1
sS'accel_y'
p10
F10.01
sS'gyro_z'
p11
F0.3125
sS'euler_x'
p12
F7.5625
sS'gyro_x'
p13
F0.9375
sS'gyro_y'
p14
F0.0625
sS'euler_y'
p15
F-0.875
sa(dp16
g2
I0
sg3
F90.4375
sg4
I0
sg5
F-59.5
sg6
F51.5
sg7
F-40.1875
sg8
F-0.41
sg9
F-0.15
sg10
F9.73
sg11
F0.5625
sg12
F7.5625
sg13
F-0.375
sg14
F0.375
sg15
F-0.875
sa(dp17
g2
I0
sg3
F90.5
sg4
I0
sg5
F-59.6875
sg6
F51.5
sg7
F-41.0
sg8
F-0.44
sg9
F0.19
sg10
F9.95
sg11
F2.375
sg12
F7.4375
sg13
F1.0625
sg14
F1.625
sg15
F-0.875
sa(dp18
g2
I0
sg3
F90.4375
sg4
I0
sg5
F-59.0
sg6
F51.5
sg7
F-40.5625
sg8
F0.01
sg9
F-0.1
sg10
F10.07
sg11
F0.0
sg12
F7.375
sg13
F1.875
sg14
F1.3125
sg15
F-0.875
sa(dp19
g2
I0
sg3
F90.5
sg4
I0
sg5
F-59.6875
sg6
F51.5
sg7
F-40.5
sg8
F-0.08
sg9
F-0.07
sg10
F10.22
sg11
F0.25
sg12
F7.3125
sg13
F-0.0625
sg14
F0.625
sg15
F-0.8125
sa(dp20
g2
I0
sg3
F90.4375
sg4
I0
sg5
F-59.375
sg6
F52.1875
sg7
F-41.25
sg8
F-0.01
sg9
F-0.08
sg10
F10.27
sg11
F1.6875
sg12
F7.3125
sg13
F-1.3125
sg14
F0.5625
sg15
F-0.8125
sa(dp21
g2
I0
sg3
F90.4375
sg4
I0
sg5
F-59.375
sg6
F51.5
sg7
F-39.6875
sg8
F-0.4
sg9
F-0.34
sg10
F10.16
sg11
F-0.75
sg12
F7.25
sg13
F0.3125
sg14
F0.25
sg15
F-0.8125
sa(dp22
g2
I0
sg3
F90.5
sg4
I0
sg5
F-59.0
sg6
F50.375
sg7
F-40.0625
sg8
F-0.15
sg9
F-0.18
sg10
F10.07
sg11
F0.25
sg12
F7.1875
sg13
F1.625
sg14
F1.3125
sg15
F-0.8125
sa(dp23
g2
I0
sg3
F90.4375
sg4
I0
sg5
F-59.0
sg6
F51.5
sg7
F-40.5
sg8
F0.17
sg9
F-0.08
sg10
F10.37
sg11
F1.0
sg12
F7.125
sg13
F-1.875
sg14
F-0.375
sg15
F-0.75
sa(dp24
g2
I0
sg3
F90.375
sg4
I0
sg5
F-59.0
sg6
F51.0625
sg7
F-41.5625
sg8
F-0.16
sg9
F-0.43
sg10
F10.15
sg11
F-1.5625
sg12
F7.125
sg13
F-1.9375
sg14
F-0.875
sg15
F-0.75
sa(dp25
g2
I0
sg3
F90.25
sg4
I0
sg5
F-59.375
sg6
F51.5
sg7
F-40.0625
sg8
F-0.07
sg9
F-0.17
sg10
F10.21
sg11
F-0.875
sg12
F7.125
sg13
F0.875
sg14
F-0.625
sg15
F-0.8125
sa(dp26
g2
I0
sg3
F90.375
sg4
I0
sg5
F-59.0
sg6
F51.5
sg7
F-39.6875
sg8
F0.04
sg9
F-0.09
sg10
F10.26
sg11
F0.25
sg12
F7.0625
sg13
F0.3125
sg14
F-0.1875
sg15
F-0.8125
sa(dp27
g2
I0
sg3
F90.375
sg4
I0
sg5
F-59.6875
sg6
F51.0625
sg7
F-40.0625
sg8
F-0.33
sg9
F-0.27
sg10
F10.12
sg11
F-1.125
sg12
F7.0
sg13
F-0.9375
sg14
F-0.6875
sg15
F-0.8125
sa(dp28
g2
I0
sg3
F89.875
sg4
I0
sg5
F-59.375
sg6
F50.0
sg7
F-39.6875
sg8
F0.2
sg9
F0.6
sg10
F10.4
sg11
F-4.625
sg12
F7.125
sg13
F-6.5625
sg14
F0.9375
sg15
F-1.0625
sa(dp29
g2
I0
sg3
F89.625
sg4
I0
sg5
F-58.5625
sg6
F50.6875
sg7
F-40.0625
sg8
F0.89
sg9
F0.14
sg10
F11.0
sg11
F-28.4375
sg12
F8.125
sg13
F4.1875
sg14
F0.5
sg15
F-2.4375
sa(dp30
g2
I0
sg3
F90.875
sg4
I0
sg5
F-59.25
sg6
F52.5625
sg7
F-41.5625
sg8
F-0.42
sg9
F1.39
sg10
F9.7
sg11
F-0.625
sg12
F10.0
sg13
F15.3125
sg14
F-10.1875
sg15
F-4.0
sa(dp31
g2
I0
sg3
F92.1875
sg4
I0
sg5
F-59.1875
sg6
F53.5
sg7
F-40.0
sg8
F-1.24
sg9
F0.01
sg10
F9.28
sg11
F28.9375
sg12
F10.5625
sg13
F9.5
sg14
F-28.375
sg15
F-1.9375
sa(dp32
g2
I0
sg3
F91.6875
sg4
I0
sg5
F-58.875
sg6
F52.25
sg7
F-41.875
sg8
F-0.75
sg9
F1.45
sg10
F10.82
sg11
F-9.9375
sg12
F10.125
sg13
F-0.625
sg14
F15.3125
sg15
F-1.4375
sa(dp33
g2
I0
sg3
F91.9375
sg4
I0
sg5
F-58.1875
sg6
F52.5
sg7
F-43.875
sg8
F0.07
sg9
F1.52
sg10
F10.43
sg11
F12.125
sg12
F9.125
sg13
F4.3125
sg14
F4.0625
sg15
F-1.5
sa(dp34
g2
I0
sg3
F91.6875
sg4
I0
sg5
F-57.6875
sg6
F52.0625
sg7
F-44.875
sg8
F-0.02
sg9
F0.52
sg10
F10.12
sg11
F-1.5625
sg12
F9.4375
sg13
F-13.5625
sg14
F-15.1875
sg15
F-0.625
sa(dp35
g2
I0
sg3
F90.1875
sg4
I0
sg5
F-56.375
sg6
F51.0625
sg7
F-47.5
sg8
F-0.55
sg9
F-0.4
sg10
F10.63
sg11
F-3.625
sg12
F10.1875
sg13
F-26.125
sg14
F19.75
sg15
F-1.5
sa(dp36
g2
I0
sg3
F88.5625
sg4
I0
sg5
F-52.6875
sg6
F51.6875
sg7
F-51.0
sg8
F0.14
sg9
F-0.42
sg10
F10.04
sg11
F19.75
sg12
F7.25
sg13
F-11.0625
sg14
F19.5
sg15
F-0.5
sa(dp37
g2
I0
sg3
F87.9375
sg4
I0
sg5
F-50.5
sg6
F51.1875
sg7
F-51.1875
sg8
F0.02
sg9
F-0.68
sg10
F10.08
sg11
F18.5
sg12
F3.1875
sg13
F-9.125
sg14
F41.5625
sg15
F0.9375
sa(dp38
g2
I0
sg3
F88.5625
sg4
I0
sg5
F-48.875
sg6
F53.5625
sg7
F-47.875
sg8
F-0.09
sg9
F-0.42
sg10
F9.57
sg11
F28.4375
sg12
F358.0
sg13
F21.3125
sg14
F35.0
sg15
F3.0
sa(dp39
g2
I0
sg3
F89.625
sg4
I0
sg5
F-49.5625
sg6
F54.375
sg7
F-45.1875
sg8
F-0.48
sg9
F0.03
sg10
F9.6
sg11
F9.75
sg12
F353.3125
sg13
F10.25
sg14
F39.75
sg15
F4.5
sa(dp40
g2
I0
sg3
F89.5625
sg4
I0
sg5
F-49.5
sg6
F55.5625
sg7
F-43.75
sg8
F-0.88
sg9
F-0.28
sg10
F9.62
sg11
F7.4375
sg12
F350.0625
sg13
F-0.0625
sg14
F14.1875
sg15
F5.375
sa(dp41
g2
I0
sg3
F88.875
sg4
I0
sg5
F-48.5
sg6
F57.25
sg7
F-43.875
sg8
F-0.34
sg9
F0.5
sg10
F11.04
sg11
F-11.125
sg12
F351.5
sg13
F-7.4375
sg14
F-60.375
sg15
F4.75
sa(dp42
g2
I0
sg3
F89.25
sg4
I0
sg5
F-47.0625
sg6
F59.875
sg7
F-45.1875
sg8
F0.74
sg9
F0.24
sg10
F10.39
sg11
F-5.3125
sg12
F355.0625
sg13
F10.5625
sg14
F-14.9375
sg15
F4.5
sa(dp43
g2
I0
sg3
F89.5625
sg4
I0
sg5
F-48.375
sg6
F62.375
sg7
F-44.5
sg8
F0.37
sg9
F0.04
sg10
F10.2
sg11
F-6.375
sg12
F356.25
sg13
F-14.0625
sg14
F4.1875
sg15
F3.6875
sa(dp44
g2
I0
sg3
F88.125
sg4
I0
sg5
F-49.5
sg6
F64.0625
sg7
F-44.6875
sg8
F-0.17
sg9
F-1.57
sg10
F9.87
sg11
F-15.5
sg12
F356.8125
sg13
F-18.8125
sg14
F14.8125
sg15
F3.1875
sa(dp45
g2
I0
sg3
F87.125
sg4
I0
sg5
F-49.0625
sg6
F66.1875
sg7
F-45.0
sg8
F0.09
sg9
F-0.91
sg10
F11.02
sg11
F-10.375
sg12
F356.1875
sg13
F-4.0625
sg14
F-0.6875
sg15
F2.3125
sa(dp46
g2
I0
sg3
F88.875
sg4
I0
sg5
F-49.1875
sg6
F69.0
sg7
F-45.0625
sg8
F0.01
sg9
F-0.45
sg10
F10.51
sg11
F-38.375
sg12
F356.75
sg13
F34.5
sg14
F36.6875
sg15
F0.25
sa(dp47
g2
I0
sg3
F91.0
sg4
I0
sg5
F-48.875
sg6
F70.25
sg7
F-43.5
sg8
F-2.26
sg9
F-0.21
sg10
F8.19
sg11
F7.1875
sg12
F357.625
sg13
F25.6875
sg14
F-14.8125
sg15
F-0.5
sa(dp48
g2
I0
sg3
F91.0
sg4
I0
sg5
F-50.25
sg6
F70.0
sg7
F-43.25
sg8
F-0.16
sg9
F-0.15
sg10
F10.1
sg11
F-1.375
sg12
F357.8125
sg13
F-2.5625
sg14
F2.9375
sg15
F-0.25
sa(dp49
g2
I0
sg3
F90.5625
sg4
I0
sg5
F-50.0
sg6
F69.375
sg7
F-42.375
sg8
F0.41
sg9
F-0.34
sg10
F10.43
sg11
F-0.9375
sg12
F357.875
sg13
F-9.1875
sg14
F3.0
sg15
F-0.3125
sa(dp50
g2
I0
sg3
F90.125
sg4
I0
sg5
F-51.1875
sg6
F69.75
sg7
F-43.1875
sg8
F-0.67
sg9
F0.53
sg10
F9.54
sg11
F-0.5625
sg12
F357.75
sg13
F-11.5
sg14
F-3.0
sg15
F-0.125
sa(dp51
g2
I0
sg3
F89.25
sg4
I0
sg5
F-49.75
sg6
F69.6875
sg7
F-43.25
sg8
F0.76
sg9
F0.19
sg10
F9.97
sg11
F-3.875
sg12
F358.125
sg13
F-8.0625
sg14
F-7.0625
sg15
F-0.375
sa(dp52
g2
I0
sg3
F89.75
sg4
I0
sg5
F-49.375
sg6
F70.375
sg7
F-44.5
sg8
F0.61
sg9
F-0.68
sg10
F10.85
sg11
F-0.1875
sg12
F358.25
sg13
F17.6875
sg14
F-1.6875
sg15
F-0.625
sa(dp53
g2
I0
sg3
F90.9375
sg4
I0
sg5
F-51.0
sg6
F69.875
sg7
F-42.875
sg8
F-0.47
sg9
F-0.05
sg10
F10.59
sg11
F-0.6875
sg12
F358.125
sg13
F3.25
sg14
F1.9375
sg15
F-0.4375
sa(dp54
g2
I0
sg3
F91.125
sg4
I0
sg5
F-50.25
sg6
F69.5625
sg7
F-43.25
sg8
F-0.49
sg9
F-0.47
sg10
F10.22
sg11
F1.8125
sg12
F358.125
sg13
F0.375
sg14
F1.1875
sg15
F-0.1875
sa(dp55
g2
I0
sg3
F91.25
sg4
I0
sg5
F-50.25
sg6
F69.5625
sg7
F-42.875
sg8
F-0.06
sg9
F-0.33
sg10
F10.27
sg11
F1.1875
sg12
F357.9375
sg13
F0.75
sg14
F6.875
sg15
F-0.3125
sa(dp56
g2
I0
sg3
F91.25
sg4
I0
sg5
F-51.0
sg6
F69.5625
sg7
F-42.5
sg8
F-0.79
sg9
F-0.93
sg10
F9.85
sg11
F2.5
sg12
F357.625
sg13
F-2.1875
sg14
F-5.5625
sg15
F-0.25
sa(dp57
g2
I0
sg3
F91.0
sg4
I0
sg5
F-51.25
sg6
F69.875
sg7
F-42.875
sg8
F0.01
sg9
F-0.67
sg10
F10.45
sg11
F0.25
sg12
F357.75
sg13
F-2.5625
sg14
F-6.125
sg15
F-0.25
sa(dp58
g2
I0
sg3
F90.9375
sg4
I0
sg5
F-50.875
sg6
F69.875
sg7
F-44.0625
sg8
F-0.44
sg9
F-0.53
sg10
F10.1
sg11
F1.25
sg12
F357.75
sg13
F-0.75
sg14
F-0.875
sg15
F-0.25
sa(dp59
g2
I0
sg3
F90.8125
sg4
I0
sg5
F-50.875
sg6
F69.875
sg7
F-42.5
sg8
F0.11
sg9
F0.07
sg10
F10.34
sg11
F-1.75
sg12
F357.6875
sg13
F-2.0
sg14
F1.8125
sg15
F-0.3125
sa(dp60
g2
I0
sg3
F90.75
sg4
I0
sg5
F-50.5625
sg6
F69.875
sg7
F-43.6875
sg8
F-0.57
sg9
F0.16
sg10
F10.0
sg11
F-2.0625
sg12
F357.75
sg13
F-1.4375
sg14
F5.8125
sg15
F-0.375
sa(dp61
g2
I0
sg3
F90.75
sg4
I0
sg5
F-50.875
sg6
F69.875
sg7
F-43.25
sg8
F-0.53
sg9
F0.15
sg10
F10.11
sg11
F1.625
sg12
F357.6875
sg13
F1.8125
sg14
F2.5625
sg15
F-0.3125
sa(dp62
g2
I0
sg3
F90.75
sg4
I0
sg5
F-50.1875
sg6
F69.875
sg7
F-43.25
sg8
F-0.16
sg9
F-0.38
sg10
F10.18
sg11
F-0.625
sg12
F357.5625
sg13
F1.125
sg14
F1.375
sg15
F-0.3125
sa(dp63
g2
I0
sg3
F90.875
sg4
I0
sg5
F-50.875
sg6
F70.25
sg7
F-42.875
sg8
F-0.22
sg9
F0.0
sg10
F10.19
sg11
F-2.25
sg12
F357.625
sg13
F0.75
sg14
F-0.9375
sg15
F-0.4375
sa(dp64
g2
I0
sg3
F90.875
sg4
I0
sg5
F-51.25
sg6
F70.25
sg7
F-42.875
sg8
F-0.52
sg9
F-0.13
sg10
F9.99
sg11
F-0.625
sg12
F357.6875
sg13
F0.875
sg14
F0.5
sg15
F-0.5
sa(dp65
g2
I0
sg3
F90.875
sg4
I0
sg5
F-51.5625
sg6
F70.6875
sg7
F-42.875
sg8
F-0.33
sg9
F-0.02
sg10
F10.13
sg11
F0.0
sg12
F357.6875
sg13
F0.25
sg14
F0.1875
sg15
F-0.5
sa(dp66
g2
I0
sg3
F90.875
sg4
I0
sg5
F-50.1875
sg6
F70.25
sg7
F-42.875
sg8
F-0.22
sg9
F-0.02
sg10
F10.15
sg11
F0.0
sg12
F357.6875
sg13
F-0.125
sg14
F0.1875
sg15
F-0.5
sa(dp67
g2
I0
sg3
F90.875
sg4
I0
sg5
F-50.1875
sg6
F70.25
sg7
F-44.0625
sg8
F-0.18
sg9
F-0.1
sg10
F10.17
sg11
F0.0
sg12
F357.6875
sg13
F-0.125
sg14
F-0.1875
sg15
F-0.5
sa(dp68
g2
I0
sg3
F90.875
sg4
I0
sg5
F-50.875
sg6
F69.875
sg7
F-44.0625
sg8
F-0.17
sg9
F-0.08
sg10
F10.18
sg11
F0.0
sg12
F357.6875
sg13
F0.0
sg14
F0.1875
sg15
F-0.5
sa(dp69
g2
I0
sg3
F90.875
sg4
I0
sg5
F-50.875
sg6
F70.25
sg7
F-43.25
sg8
F-0.2
sg9
F-0.07
sg10
F10.15
sg11
F-0.125
sg12
F357.6875
sg13
F-0.0625
sg14
F0.0
sg15
F-0.5
sa(dp70
g2
I0
sg3
F90.875
sg4
I0
sg5
F-50.1875
sg6
F69.875
sg7
F-43.6875
sg8
F-0.2
sg9
F-0.09
sg10
F10.17
sg11
F0.0625
sg12
F357.6875
sg13
F0.0
sg14
F0.125
sg15
F-0.5
sa(dp71
g2
I0
sg3
F90.875
sg4
I0
sg5
F-50.5625
sg6
F70.25
sg7
F-42.5
sg8
F-0.19
sg9
F-0.1
sg10
F10.18
sg11
F0.0625
sg12
F357.6875
sg13
F-0.0625
sg14
F-0.0625
sg15
F-0.5
sa(dp72
g2
I0
sg3
F90.875
sg4
I0
sg5
F-51.25
sg6
F70.25
sg7
F-44.0625
sg8
F-0.2
sg9
F-0.1
sg10
F10.17
sg11
F-0.0625
sg12
F357.6875
sg13
F0.0
sg14
F0.0
sg15
F-0.5
sa(dp73
g2
I0
sg3
F90.875
sg4
I0
sg5
F-50.1875
sg6
F69.875
sg7
F-43.25
sg8
F-0.2
sg9
F-0.09
sg10
F10.15
sg11
F-0.125
sg12
F357.6875
sg13
F0.0625
sg14
F0.125
sg15
F-0.5
sa(dp74
g2
I0
sg3
F90.875
sg4
I0
sg5
F-51.25
sg6
F70.6875
sg7
F-43.25
sg8
F-0.18
sg9
F-0.09
sg10
F10.18
sg11
F0.0625
sg12
F357.6875
sg13
F0.0
sg14
F0.0625
sg15
F-0.5
sa(dp75
g2
I0
sg3
F90.875
sg4
I0
sg5
F-50.875
sg6
F69.875
sg7
F-44.0625
sg8
F-0.2
sg9
F-0.08
sg10
F10.14
sg11
F0.0625
sg12
F357.6875
sg13
F0.125
sg14
F-0.1875
sg15
F-0.5
sa(dp76
g2
I0
sg3
F90.9375
sg4
I0
sg5
F-50.875
sg6
F69.875
sg7
F-43.6875
sg8
F-0.17
sg9
F-0.08
sg10
F10.17
sg11
F0.1875
sg12
F357.6875
sg13
F0.0625
sg14
F0.0
sg15
F-0.5
sa(dp77
g2
I0
sg3
F90.9375
sg4
I0
sg5
F-50.875
sg6
F70.25
sg7
F-43.25
sg8
F-0.21
sg9
F-0.09
sg10
F10.16
sg11
F-0.0625
sg12
F357.6875
sg13
F-0.0625
sg14
F-0.1875
sg15
F-0.5
sa(dp78
g2
I0
sg3
F90.9375
sg4
I0
sg5
F-51.25
sg6
F70.25
sg7
F-43.6875
sg8
F-0.19
sg9
F-0.08
sg10
F10.14
sg11
F0.0625
sg12
F357.6875
sg13
F0.0
sg14
F0.0
sg15
F-0.5
sa(dp79
g2
I0
sg3
F90.9375
sg4
I0
sg5
F-50.1875
sg6
F70.25
sg7
F-42.875
sg8
F-0.18
sg9
F-0.07
sg10
F10.19
sg11
F0.0625
sg12
F357.6875
sg13
F-0.125
sg14
F-0.0625
sg15
F-0.5
sa(dp80
g2
I0
sg3
F90.9375
sg4
I0
sg5
F-51.25
sg6
F71.0
sg7
F-43.6875
sg8
F-0.19
sg9
F-0.09
sg10
F10.15
sg11
F0.0
sg12
F357.6875
sg13
F0.0625
sg14
F0.0625
sg15
F-0.5
sa(dp81
g2
I0
sg3
F90.9375
sg4
I0
sg5
F-51.25
sg6
F69.875
sg7
F-43.6875
sg8
F-0.19
sg9
F-0.08
sg10
F10.14
sg11
F0.125
sg12
F357.6875
sg13
F0.0
sg14
F-0.0625
sg15
F-0.5
sa(dp82
g2
I0
sg3
F90.9375
sg4
I0
sg5
F-50.5625
sg6
F70.6875
sg7
F-43.6875
sg8
F-0.19
sg9
F-0.08
sg10
F10.14
sg11
F0.0
sg12
F357.6875
sg13
F0.1875
sg14
F-0.0625
sg15
F-0.5
sa(dp83
g2
I0
sg3
F90.9375
sg4
I0
sg5
F-50.5625
sg6
F70.25
sg7
F-42.5
sg8
F-0.18
sg9
F-0.1
sg10
F10.19
sg11
F0.0
sg12
F357.6875
sg13
F0.0625
sg14
F0.25
sg15
F-0.5
sa(dp84
g2
I0
sg3
F90.9375
sg4
I0
sg5
F-50.875
sg6
F69.875
sg7
F-44.5
sg8
F-0.2
sg9
F-0.11
sg10
F10.15
sg11
F0.0
sg12
F357.6875
sg13
F0.0
sg14
F0.125
sg15
F-0.5
sa(dp85
g2
I0
sg3
F90.9375
sg4
I0
sg5
F-51.5625
sg6
F70.25
sg7
F-42.0625
sg8
F-0.19
sg9
F-0.11
sg10
F10.16
sg11
F0.0625
sg12
F357.6875
sg13
F-0.0625
sg14
F-0.125
sg15
F-0.5
sa(dp86
g2
I0
sg3
F90.9375
sg4
I0
sg5
F-50.875
sg6
F69.875
sg7
F-43.6875
sg8
F-0.19
sg9
F-0.11
sg10
F10.17
sg11
F0.0625
sg12
F357.6875
sg13
F-0.0625
sg14
F-0.1875
sg15
F-0.5
sa(dp87
g2
I0
sg3
F90.9375
sg4
I0
sg5
F-52.0
sg6
F70.6875
sg7
F-43.25
sg8
F-0.18
sg9
F-0.11
sg10
F10.19
sg11
F-0.0625
sg12
F357.6875
sg13
F-0.125
sg14
F0.1875
sg15
F-0.5
sa(dp88
g2
I0
sg3
F90.9375
sg4
I0
sg5
F-51.5625
sg6
F70.6875
sg7
F-44.0625
sg8
F-0.21
sg9
F-0.07
sg10
F10.18
sg11
F0.0625
sg12
F357.6875
sg13
F0.125
sg14
F0.0625
sg15
F-0.5
sa(dp89
g2
I0
sg3
F90.9375
sg4
I0
sg5
F-51.25
sg6
F70.6875
sg7
F-43.25
sg8
F-0.19
sg9
F-0.08
sg10
F10.16
sg11
F0.0625
sg12
F357.6875
sg13
F0.0625
sg14
F0.0
sg15
F-0.5
sa(dp90
g2
I0
sg3
F90.9375
sg4
I0
sg5
F-50.875
sg6
F69.5625
sg7
F-43.25
sg8
F-0.18
sg9
F-0.1
sg10
F10.15
sg11
F0.0
sg12
F357.6875
sg13
F0.0
sg14
F0.0
sg15
F-0.5
sa(dp91
g2
I0
sg3
F90.9375
sg4
I0
sg5
F-50.875
sg6
F70.25
sg7
F-43.25
sg8
F-0.18
sg9
F-0.06
sg10
F10.16
sg11
F0.125
sg12
F357.6875
sg13
F0.0625
sg14
F0.125
sg15
F-0.5
sa(dp92
g2
I0
sg3
F90.9375
sg4
I0
sg5
F-51.25
sg6
F70.25
sg7
F-44.5
sg8
F-0.19
sg9
F-0.09
sg10
F10.11
sg11
F-0.0625
sg12
F357.6875
sg13
F0.0625
sg14
F0.0
sg15
F-0.5
sa(dp93
g2
I0
sg3
F90.9375
sg4
I0
sg5
F-51.5625
sg6
F70.6875
sg7
F-43.25
sg8
F-0.21
sg9
F-0.09
sg10
F10.17
sg11
F0.0
sg12
F357.6875
sg13
F0.0
sg14
F0.125
sg15
F-0.5
sa(dp94
g2
I0
sg3
F90.9375
sg4
I0
sg5
F-51.25
sg6
F69.875
sg7
F-42.875
sg8
F-0.18
sg9
F-0.08
sg10
F10.19
sg11
F0.0625
sg12
F357.6875
sg13
F0.0
sg14
F-0.0625
sg15
F-0.5
sa(dp95
g2
I0
sg3
F90.9375
sg4
I0
sg5
F-51.25
sg6
F69.875
sg7
F-42.875
sg8
F-0.21
sg9
F-0.09
sg10
F10.16
sg11
F-0.0625
sg12
F357.6875
sg13
F0.0
sg14
F0.0625
sg15
F-0.5
sa(dp96
g2
I0
sg3
F90.9375
sg4
I0
sg5
F-50.5625
sg6
F70.25
sg7
F-42.5
sg8
F-0.2
sg9
F-0.07
sg10
F10.14
sg11
F0.0
sg12
F357.6875
sg13
F0.0625
sg14
F0.1875
sg15
F-0.5
sa(dp97
g2
I0
sg3
F90.9375
sg4
I0
sg5
F-51.5625
sg6
F70.6875
sg7
F-43.25
sg8
F-0.17
sg9
F-0.08
sg10
F10.18
sg11
F0.0
sg12
F357.6875
sg13
F0.0
sg14
F0.0625
sg15
F-0.5
sa(dp98
g2
I0
sg3
F90.9375
sg4
I0
sg5
F-51.25
sg6
F70.6875
sg7
F-44.0625
sg8
F-0.25
sg9
F-0.09
sg10
F10.17
sg11
F0.0625
sg12
F357.6875
sg13
F0.0
sg14
F-0.125
sg15
F-0.5
sa(dp99
g2
I0
sg3
F90.9375
sg4
I0
sg5
F-50.875
sg6
F70.25
sg7
F-43.6875
sg8
F-0.18
sg9
F-0.08
sg10
F10.15
sg11
F-0.0625
sg12
F357.6875
sg13
F0.0625
sg14
F-0.125
sg15
F-0.5
sa(dp100
g2
I0
sg3
F90.9375
sg4
I0
sg5
F-50.875
sg6
F70.6875
sg7
F-43.25
sg8
F-0.21
sg9
F-0.1
sg10
F10.12
sg11
F-0.0625
sg12
F357.6875
sg13
F0.125
sg14
F-0.0625
sg15
F-0.5
sa(dp101
g2
I0
sg3
F90.9375
sg4
I0
sg5
F-51.25
sg6
F70.25
sg7
F-43.25
sg8
F-0.19
sg9
F-0.08
sg10
F10.14
sg11
F0.125
sg12
F357.6875
sg13
F0.0625
sg14
F0.0625
sg15
F-0.5
sa(dp102
g2
I0
sg3
F90.9375
sg4
I0
sg5
F-51.5625
sg6
F70.25
sg7
F-42.875
sg8
F-0.18
sg9
F-0.1
sg10
F10.16
sg11
F0.0625
sg12
F357.6875
sg13
F0.0625
sg14
F-0.0625
sg15
F-0.5
sa(dp103
g2
I0
sg3
F90.9375
sg4
I0
sg5
F-51.25
sg6
F69.5625
sg7
F-43.25
sg8
F-0.19
sg9
F-0.1
sg10
F10.14
sg11
F-0.0625
sg12
F357.6875
sg13
F0.0
sg14
F0.125
sg15
F-0.5
sa(dp104
g2
I0
sg3
F90.9375
sg4
I0
sg5
F-52.375
sg6
F70.25
sg7
F-42.875
sg8
F-0.19
sg9
F-0.07
sg10
F10.15
sg11
F0.0
sg12
F357.6875
sg13
F-0.125
sg14
F0.0
sg15
F-0.5
sa(dp105
g2
I0
sg3
F90.9375
sg4
I0
sg5
F-50.875
sg6
F70.25
sg7
F-43.25
sg8
F-0.18
sg9
F-0.1
sg10
F10.16
sg11
F0.1875
sg12
F357.6875
sg13
F-0.1875
sg14
F-0.125
sg15
F-0.5
sa(dp106
g2
I0
sg3
F90.9375
sg4
I0
sg5
F-50.875
sg6
F69.875
sg7
F-42.0625
sg8
F-0.18
sg9
F-0.09
sg10
F10.15
sg11
F-0.125
sg12
F357.6875
sg13
F-0.125
sg14
F0.0
sg15
F-0.5
sa(dp107
g2
I0
sg3
F90.9375
sg4
I0
sg5
F-51.25
sg6
F70.25
sg7
F-43.25
sg8
F-0.2
sg9
F-0.08
sg10
F10.18
sg11
F-0.0625
sg12
F357.6875
sg13
F0.0
sg14
F-0.125
sg15
F-0.5
sa(dp108
g2
I0
sg3
F90.9375
sg4
I0
sg5
F-51.25
sg6
F70.25
sg7
F-44.0625
sg8
F-0.18
sg9
F-0.07
sg10
F10.15
sg11
F0.125
sg12
F357.6875
sg13
F-0.0625
sg14
F0.0
sg15
F-0.5
sa(dp109
g2
I0
sg3
F90.9375
sg4
I0
sg5
F-51.25
sg6
F70.6875
sg7
F-43.6875
sg8
F-0.2
sg9
F-0.09
sg10
F10.15
sg11
F0.0
sg12
F357.6875
sg13
F0.125
sg14
F-0.125
sg15
F-0.5
sa(dp110
g2
I0
sg3
F90.9375
sg4
I0
sg5
F-52.0
sg6
F70.25
sg7
F-43.6875
sg8
F-0.18
sg9
F-0.11
sg10
F10.18
sg11
F0.0625
sg12
F357.6875
sg13
F-0.0625
sg14
F-0.1875
sg15
F-0.5
sa(dp111
g2
I0
sg3
F90.9375
sg4
I0
sg5
F-51.25
sg6
F70.25
sg7
F-43.25
sg8
F-0.19
sg9
F-0.09
sg10
F10.14
sg11
F0.0625
sg12
F357.6875
sg13
F0.125
sg14
F0.1875
sg15
F-0.5
sa(dp112
g2
I0
sg3
F90.9375
sg4
I0
sg5
F-52.0
sg6
F69.875
sg7
F-43.25
sg8
F-0.22
sg9
F-0.07
sg10
F10.21
sg11
F0.0
sg12
F357.6875
sg13
F0.0625
sg14
F-0.0625
sg15
F-0.5
sa(dp113
g2
I0
sg3
F90.9375
sg4
I0
sg5
F-50.875
sg6
F70.6875
sg7
F-42.5
sg8
F-0.17
sg9
F-0.1
sg10
F10.18
sg11
F0.0
sg12
F357.6875
sg13
F-0.125
sg14
F0.0
sg15
F-0.5
sa(dp114
g2
I0
sg3
F90.9375
sg4
I0
sg5
F-51.5625
sg6
F70.6875
sg7
F-42.875
sg8
F-0.18
sg9
F-0.09
sg10
F10.18
sg11
F0.0625
sg12
F357.6875
sg13
F0.0625
sg14
F0.0
sg15
F-0.5
sa.