(lp0
(dp1
S'left_enc'
p2
I0
sS'euler_z'
p3
F1.5
sS'right_enc'
p4
I0
sS'mag_y'
p5
F-33.5625
sS'mag_x'
p6
F36.5
sS'mag_z'
p7
F8.0625
sS'accel_z'
p8
F0.17
sS'accel_x'
p9
F-0.62
sS'accel_y'
p10
F9.72
sS'gyro_z'
p11
F8.5
sS'euler_x'
p12
F359.125
sS'gyro_x'
p13
F14.3125
sS'gyro_y'
p14
F4.6875
sS'euler_y'
p15
F-0.1875
sa(dp16
g2
I0
sg3
F1.9375
sg4
I0
sg5
F-32.875
sg6
F38.25
sg7
F12.0
sg8
F0.31
sg9
F-0.37
sg10
F10.21
sg11
F5.5625
sg12
F358.375
sg13
F3.25
sg14
F6.375
sg15
F-0.875
sa(dp17
g2
I0
sg3
F87.6875
sg4
I0
sg5
F-32.875
sg6
F40.0625
sg7
F15.375
sg8
F0.14
sg9
F-0.24
sg10
F9.68
sg11
F-2.4375
sg12
F356.9375
sg13
F6.4375
sg14
F13.4375
sg15
F-1.75
sa(dp18
g2
I0
sg3
F87.6875
sg4
I0
sg5
F-32.0625
sg6
F41.25
sg7
F18.5625
sg8
F0.21
sg9
F-0.18
sg10
F9.95
sg11
F1.375
sg12
F355.9375
sg13
F-6.1875
sg14
F5.25
sg15
F-1.625
sa(dp19
g2
I0
sg3
F87.5
sg4
I0
sg5
F-19.5625
sg6
F26.5625
sg7
F14.0625
sg8
F0.18
sg9
F0.24
sg10
F10.14
sg11
F-0.6875
sg12
F355.375
sg13
F1.5
sg14
F9.9375
sg15
F-1.6875
sa(dp20
g2
I0
sg3
F87.6875
sg4
I0
sg5
F-17.0625
sg6
F27.1875
sg7
F15.5625
sg8
F0.26
sg9
F0.22
sg10
F10.07
sg11
F4.4375
sg12
F354.625
sg13
F4.4375
sg14
F4.3125
sg15
F-1.4375
sa(dp21
g2
I0
sg3
F87.625
sg4
I0
sg5
F-15.875
sg6
F28.375
sg7
F15.6875
sg8
F0.18
sg9
F0.31
sg10
F10.01
sg11
F16.625
sg12
F353.25
sg13
F-4.0
sg14
F7.3125
sg15
F-0.5
sa(dp22
g2
I0
sg3
F87.625
sg4
I0
sg5
F-15.6875
sg6
F28.6875
sg7
F18.1875
sg8
F0.53
sg9
F0.19
sg10
F9.67
sg11
F10.9375
sg12
F351.625
sg13
F1.25
sg14
F13.875
sg15
F0.25
sa(dp23
g2
I0
sg3
F87.6875
sg4
I0
sg5
F-15.25
sg6
F29.875
sg7
F19.0625
sg8
F0.9
sg9
F0.11
sg10
F10.38
sg11
F3.5625
sg12
F350.0
sg13
F2.875
sg14
F13.625
sg15
F0.875
sa(dp24
g2
I0
sg3
F88.3125
sg4
I0
sg5
F-13.6875
sg6
F31.1875
sg7
F19.1875
sg8
F0.99
sg9
F0.14
sg10
F10.65
sg11
F-7.625
sg12
F349.25
sg13
F6.5625
sg14
F8.875
sg15
F0.625
sa(dp25
g2
I0
sg3
F88.875
sg4
I0
sg5
F-10.25
sg6
F32.6875
sg7
F19.6875
sg8
F0.53
sg9
F0.5
sg10
F9.97
sg11
F-4.125
sg12
F349.1875
sg13
F5.625
sg14
F8.0
sg15
F0.0
sa(dp26
g2
I0
sg3
F89.0
sg4
I0
sg5
F-9.0
sg6
F33.375
sg7
F19.375
sg8
F0.56
sg9
F0.12
sg10
F10.04
sg11
F-6.25
sg12
F349.4375
sg13
F3.0625
sg14
F2.25
sg15
F-0.25
sa(dp27
g2
I0
sg3
F89.0
sg4
I0
sg5
F-8.0625
sg6
F36.75
sg7
F19.75
sg8
F0.46
sg9
F0.43
sg10
F10.04
sg11
F0.375
sg12
F349.0
sg13
F-2.0
sg14
F5.0
sg15
F-0.25
sa(dp28
g2
I0
sg3
F89.25
sg4
I0
sg5
F-7.5
sg6
F37.0625
sg7
F20.25
sg8
F0.31
sg9
F0.46
sg10
F10.08
sg11
F3.1875
sg12
F348.75
sg13
F9.5625
sg14
F-1.4375
sg15
F-0.125
sa(dp29
g2
I0
sg3
F89.0
sg4
I0
sg5
F-7.1875
sg6
F39.5625
sg7
F20.25
sg8
F-0.26
sg9
F2.77
sg10
F11.11
sg11
F-13.6875
sg12
F347.625
sg13
F-24.4375
sg14
F65.6875
sg15
F-0.4375
sa(dp30
g2
I0
sg3
F88.1875
sg4
I0
sg5
F-7.25
sg6
F39.375
sg7
F23.0625
sg8
F0.45
sg9
F-1.21
sg10
F9.46
sg11
F-6.5
sg12
F346.875
sg13
F0.1875
sg14
F-6.5
sg15
F-0.5625
sa(dp31
g2
I0
sg3
F88.5
sg4
I0
sg5
F-7.25
sg6
F40.0
sg7
F21.875
sg8
F0.33
sg9
F0.82
sg10
F10.06
sg11
F-4.9375
sg12
F347.25
sg13
F12.0
sg14
F1.625
sg15
F-1.0625
sa(dp32
g2
I0
sg3
F89.625
sg4
I0
sg5
F-6.875
sg6
F42.5
sg7
F21.1875
sg8
F-0.1
sg9
F-0.12
sg10
F10.18
sg11
F-8.25
sg12
F348.1875
sg13
F17.375
sg14
F-1.3125
sg15
F-1.625
sa(dp33
g2
I0
sg3
F90.0625
sg4
I0
sg5
F-6.0
sg6
F42.5
sg7
F20.875
sg8
F-0.67
sg9
F-0.03
sg10
F9.91
sg11
F-1.0
sg12
F348.5625
sg13
F0.375
sg14
F-0.1875
sg15
F-2.0
sa(dp34
g2
I0
sg3
F90.0625
sg4
I0
sg5
F-6.875
sg6
F43.5625
sg7
F20.0625
sg8
F-0.17
sg9
F-0.01
sg10
F10.18
sg11
F0.0625
sg12
F348.5
sg13
F-0.875
sg14
F0.4375
sg15
F-2.0
sa(dp35
g2
I0
sg3
F90.0625
sg4
I0
sg5
F-6.875
sg6
F42.5
sg7
F20.0625
sg8
F-0.19
sg9
F-0.06
sg10
F10.11
sg11
F0.75
sg12
F348.375
sg13
F1.125
sg14
F-0.625
sg15
F-1.875
sa(dp36
g2
I0
sg3
F90.3125
sg4
I0
sg5
F-6.5
sg6
F43.875
sg7
F21.1875
sg8
F-0.28
sg9
F-0.14
sg10
F10.23
sg11
F-0.8125
sg12
F348.25
sg13
F-0.0625
sg14
F0.9375
sg15
F-1.75
sa(dp37
g2
I0
sg3
F90.375
sg4
I0
sg5
F-6.875
sg6
F42.875
sg7
F21.25
sg8
F-0.24
sg9
F0.0
sg10
F10.15
sg11
F-0.6875
sg12
F348.1875
sg13
F-0.125
sg14
F-0.6875
sg15
F-1.625
sa(dp38
g2
I0
sg3
F90.4375
sg4
I0
sg5
F-6.5
sg6
F43.1875
sg7
F21.25
sg8
F-0.28
sg9
F0.02
sg10
F10.16
sg11
F0.1875
sg12
F348.125
sg13
F0.125
sg14
F0.3125
sg15
F-1.625
sa(dp39
g2
I0
sg3
F90.5
sg4
I0
sg5
F-8.0
sg6
F43.1875
sg7
F20.75
sg8
F-0.21
sg9
F-0.07
sg10
F10.11
sg11
F-0.4375
sg12
F348.0
sg13
F-0.375
sg14
F0.0625
sg15
F-1.5
sa(dp40
g2
I0
sg3
F90.5625
sg4
I0
sg5
F-6.875
sg6
F42.5
sg7
F20.5
sg8
F-0.36
sg9
F-0.01
sg10
F10.1
sg11
F0.0625
sg12
F348.0
sg13
F0.0
sg14
F-0.625
sg15
F-1.4375
sa(dp41
g2
I0
sg3
F90.625
sg4
I0
sg5
F-6.875
sg6
F42.875
sg7
F20.75
sg8
F-0.35
sg9
F-0.02
sg10
F10.15
sg11
F0.375
sg12
F347.9375
sg13
F0.125
sg14
F-0.6875
sg15
F-1.375
sa(dp42
g2
I0
sg3
F90.625
sg4
I0
sg5
F-6.875
sg6
F43.1875
sg7
F21.25
sg8
F-0.25
sg9
F-0.08
sg10
F10.17
sg11
F0.0
sg12
F347.875
sg13
F0.0
sg14
F0.0
sg15
F-1.3125
sa(dp43
g2
I0
sg3
F90.6875
sg4
I0
sg5
F-7.5625
sg6
F43.1875
sg7
F20.5
sg8
F-0.14
sg9
F-0.07
sg10
F10.21
sg11
F0.375
sg12
F347.875
sg13
F-0.1875
sg14
F0.0
sg15
F-1.3125
sa(dp44
g2
I0
sg3
F90.6875
sg4
I0
sg5
F-6.875
sg6
F43.1875
sg7
F20.75
sg8
F-0.25
sg9
F-0.07
sg10
F10.15
sg11
F0.1875
sg12
F347.8125
sg13
F0.125
sg14
F-0.3125
sg15
F-1.25
sa(dp45
g2
I0
sg3
F90.75
sg4
I0
sg5
F-6.5
sg6
F42.875
sg7
F21.25
sg8
F-0.23
sg9
F-0.11
sg10
F10.19
sg11
F-0.9375
sg12
F347.75
sg13
F-0.875
sg14
F0.25
sg15
F-1.25
sa(dp46
g2
I0
sg3
F90.75
sg4
I0
sg5
F-6.5
sg6
F43.5625
sg7
F20.0625
sg8
F-0.29
sg9
F-0.16
sg10
F10.13
sg11
F-0.375
sg12
F347.75
sg13
F0.0
sg14
F0.1875
sg15
F-1.25
sa(dp47
g2
I0
sg3
F90.75
sg4
I0
sg5
F-7.5625
sg6
F43.1875
sg7
F21.25
sg8
F-0.36
sg9
F-0.17
sg10
F10.11
sg11
F-0.125
sg12
F347.75
sg13
F-0.0625
sg14
F-0.4375
sg15
F-1.1875
sa(dp48
g2
I0
sg3
F90.8125
sg4
I0
sg5
F-6.875
sg6
F42.5
sg7
F21.25
sg8
F-0.24
sg9
F-0.09
sg10
F10.1
sg11
F0.625
sg12
F347.6875
sg13
F0.0625
sg14
F-0.3125
sg15
F-1.1875
sa(dp49
g2
I0
sg3
F90.8125
sg4
I0
sg5
F-7.25
sg6
F43.1875
sg7
F20.875
sg8
F-0.13
sg9
F-0.12
sg10
F10.18
sg11
F0.1875
sg12
F347.75
sg13
F-0.5
sg14
F-1.5
sg15
F-1.125
sa(dp50
g2
I0
sg3
F90.8125
sg4
I0
sg5
F-7.0625
sg6
F43.25
sg7
F21.25
sg8
F-0.22
sg9
F-0.11
sg10
F10.19
sg11
F-0.4375
sg12
F347.75
sg13
F0.0
sg14
F0.4375
sg15
F-1.125
sa(dp51
g2
I0
sg3
F90.8125
sg4
I0
sg5
F-7.5
sg6
F43.25
sg7
F20.875
sg8
F-0.23
sg9
F-0.12
sg10
F10.12
sg11
F-0.0625
sg12
F347.6875
sg13
F0.0625
sg14
F-0.0625
sg15
F-1.125
sa(dp52
g2
I0
sg3
F90.8125
sg4
I0
sg5
F-6.25
sg6
F43.0
sg7
F20.5
sg8
F-0.21
sg9
F-0.09
sg10
F10.18
sg11
F0.1875
sg12
F347.6875
sg13
F-0.125
sg14
F0.125
sg15
F-1.0625
sa(dp53
g2
I0
sg3
F90.875
sg4
I0
sg5
F-6.6875
sg6
F43.25
sg7
F20.875
sg8
F-0.23
sg9
F-0.1
sg10
F10.17
sg11
F-0.125
sg12
F347.6875
sg13
F-0.0625
sg14
F0.1875
sg15
F-1.0625
sa(dp54
g2
I0
sg3
F90.875
sg4
I0
sg5
F-6.6875
sg6
F43.0
sg7
F20.5
sg8
F-0.22
sg9
F-0.11
sg10
F10.18
sg11
F0.0625
sg12
F347.6875
sg13
F0.3125
sg14
F-0.0625
sg15
F-1.0625
sa(dp55
g2
I0
sg3
F90.875
sg4
I0
sg5
F-7.5
sg6
F43.25
sg7
F20.0625
sg8
F-0.27
sg9
F-0.07
sg10
F10.17
sg11
F0.3125
sg12
F347.625
sg13
F0.125
sg14
F0.1875
sg15
F-1.0625
sa(dp56
g2
I0
sg3
F90.875
sg4
I0
sg5
F-6.25
sg6
F43.25
sg7
F21.25
sg8
F-0.22
sg9
F-0.13
sg10
F10.14
sg11
F0.3125
sg12
F347.625
sg13
F0.0625
sg14
F-0.0625
sg15
F-1.0625
sa(dp57
g2
I0
sg3
F90.875
sg4
I0
sg5
F-6.6875
sg6
F43.25
sg7
F21.6875
sg8
F-0.2
sg9
F-0.11
sg10
F10.2
sg11
F-0.1875
sg12
F347.625
sg13
F-0.0625
sg14
F-0.0625
sg15
F-1.0
sa(dp58
g2
I0
sg3
F90.9375
sg4
I0
sg5
F-6.25
sg6
F43.25
sg7
F20.0625
sg8
F-0.27
sg9
F-0.1
sg10
F10.13
sg11
F0.0
sg12
F347.625
sg13
F0.1875
sg14
F0.0
sg15
F-1.0
sa(dp59
g2
I0
sg3
F90.9375
sg4
I0
sg5
F-6.6875
sg6
F43.6875
sg7
F21.25
sg8
F-0.26
sg9
F-0.11
sg10
F10.15
sg11
F-0.25
sg12
F347.5625
sg13
F-0.125
sg14
F-0.125
sg15
F-1.0
sa(dp60
g2
I0
sg3
F90.9375
sg4
I0
sg5
F-7.5
sg6
F43.25
sg7
F20.875
sg8
F-0.23
sg9
F-0.1
sg10
F10.19
sg11
F-0.125
sg12
F347.5625
sg13
F-0.125
sg14
F-0.1875
sg15
F-1.0
sa(dp61
g2
I0
sg3
F90.9375
sg4
I0
sg5
F-7.5
sg6
F43.6875
sg7
F20.1875
sg8
F-0.29
sg9
F-0.13
sg10
F10.17
sg11
F-0.0625
sg12
F347.5625
sg13
F0.25
sg14
F0.0
sg15
F-1.0
sa(dp62
g2
I0
sg3
F90.9375
sg4
I0
sg5
F-6.25
sg6
F43.25
sg7
F21.25
sg8
F-0.26
sg9
F-0.12
sg10
F10.19
sg11
F-0.0625
sg12
F347.5625
sg13
F0.1875
sg14
F-0.0625
sg15
F-1.0
sa(dp63
g2
I0
sg3
F90.9375
sg4
I0
sg5
F-6.25
sg6
F43.6875
sg7
F19.6875
sg8
F-0.23
sg9
F-0.16
sg10
F10.16
sg11
F0.25
sg12
F347.5625
sg13
F0.3125
sg14
F-0.3125
sg15
F-1.0
sa(dp64
g2
I0
sg3
F90.9375
sg4
I0
sg5
F-6.25
sg6
F43.25
sg7
F20.5
sg8
F-0.23
sg9
F-0.15
sg10
F10.15
sg11
F-0.0625
sg12
F347.5625
sg13
F-0.1875
sg14
F0.125
sg15
F-1.0
sa(dp65
g2
I0
sg3
F90.9375
sg4
I0
sg5
F-6.6875
sg6
F43.25
sg7
F20.875
sg8
F-0.24
sg9
F-0.07
sg10
F10.18
sg11
F0.0625
sg12
F347.5625
sg13
F0.0
sg14
F-0.0625
sg15
F-1.0
sa(dp66
g2
I0
sg3
F90.9375
sg4
I0
sg5
F-7.0625
sg6
F44.0
sg7
F21.25
sg8
F-0.24
sg9
F-0.11
sg10
F10.18
sg11
F0.0625
sg12
F347.5625
sg13
F0.125
sg14
F-0.25
sg15
F-1.0
sa(dp67
g2
I0
sg3
F90.9375
sg4
I0
sg5
F-7.0625
sg6
F42.5625
sg7
F20.875
sg8
F-0.22
sg9
F-0.14
sg10
F10.15
sg11
F0.0
sg12
F347.5625
sg13
F0.0
sg14
F0.1875
sg15
F-1.0
sa(dp68
g2
I0
sg3
F90.9375
sg4
I0
sg5
F-7.75
sg6
F43.6875
sg7
F21.25
sg8
F-0.18
sg9
F-0.11
sg10
F10.19
sg11
F-0.25
sg12
F347.5625
sg13
F-0.3125
sg14
F0.375
sg15
F-1.0
sa(dp69
g2
I0
sg3
F90.9375
sg4
I0
sg5
F-7.0625
sg6
F43.25
sg7
F19.25
sg8
F-0.21
sg9
F-0.15
sg10
F10.17
sg11
F0.0625
sg12
F347.5625
sg13
F0.3125
sg14
F-0.25
sg15
F-1.0
sa(dp70
g2
I0
sg3
F90.9375
sg4
I0
sg5
F-7.0625
sg6
F43.25
sg7
F19.25
sg8
F-0.27
sg9
F-0.09
sg10
F10.14
sg11
F0.0625
sg12
F347.5625
sg13
F0.0625
sg14
F-0.1875
sg15
F-1.0
sa(dp71
g2
I0
sg3
F90.9375
sg4
I0
sg5
F-7.0625
sg6
F44.0
sg7
F20.5
sg8
F-0.22
sg9
F-0.13
sg10
F10.16
sg11
F0.0625
sg12
F347.5625
sg13
F-0.0625
sg14
F0.0
sg15
F-1.0
sa(dp72
g2
I0
sg3
F90.9375
sg4
I0
sg5
F-7.0625
sg6
F44.375
sg7
F20.5
sg8
F-0.26
sg9
F-0.09
sg10
F10.18
sg11
F0.25
sg12
F347.5625
sg13
F-0.125
sg14
F-0.0625
sg15
F-1.0
sa(dp73
g2
I0
sg3
F90.9375
sg4
I0
sg5
F-7.5
sg6
F44.0
sg7
F20.5
sg8
F-0.24
sg9
F-0.08
sg10
F10.13
sg11
F0.125
sg12
F347.5625
sg13
F0.0
sg14
F0.125
sg15
F-1.0
sa(dp74
g2
I0
sg3
F90.9375
sg4
I0
sg5
F-7.0625
sg6
F44.75
sg7
F20.5
sg8
F-0.22
sg9
F-0.11
sg10
F10.16
sg11
F-0.1875
sg12
F347.5625
sg13
F-0.0625
sg14
F-0.125
sg15
F-1.0
sa(dp75
g2
I0
sg3
F90.9375
sg4
I0
sg5
F-6.25
sg6
F44.0625
sg7
F19.75
sg8
F-0.22
sg9
F-0.1
sg10
F10.16
sg11
F-0.125
sg12
F347.5625
sg13
F0.0
sg14
F-0.0625
sg15
F-1.0
sa(dp76
g2
I0
sg3
F90.9375
sg4
I0
sg5
F-7.0625
sg6
F43.25
sg7
F21.25
sg8
F-0.24
sg9
F-0.07
sg10
F10.13
sg11
F0.25
sg12
F347.5625
sg13
F-0.0625
sg14
F-0.1875
sg15
F-1.0
sa(dp77
g2
I0
sg3
F90.9375
sg4
I0
sg5
F-7.0625
sg6
F42.5625
sg7
F20.875
sg8
F-0.19
sg9
F-0.11
sg10
F10.17
sg11
F-0.0625
sg12
F347.5625
sg13
F0.1875
sg14
F0.0625
sg15
F-1.0
sa(dp78
g2
I0
sg3
F90.9375
sg4
I0
sg5
F-7.75
sg6
F43.6875
sg7
F20.1875
sg8
F-0.22
sg9
F-0.11
sg10
F10.17
sg11
F0.3125
sg12
F347.5625
sg13
F-0.125
sg14
F-0.25
sg15
F-1.0
sa(dp79
g2
I0
sg3
F90.9375
sg4
I0
sg5
F-7.0625
sg6
F43.25
sg7
F21.6875
sg8
F-0.21
sg9
F-0.17
sg10
F10.18
sg11
F-0.125
sg12
F347.5625
sg13
F0.0
sg14
F0.0
sg15
F-1.0
sa(dp80
g2
I0
sg3
F90.9375
sg4
I0
sg5
F-6.6875
sg6
F43.0
sg7
F19.6875
sg8
F-0.27
sg9
F-0.07
sg10
F10.16
sg11
F0.125
sg12
F347.5625
sg13
F-0.125
sg14
F-0.1875
sg15
F-1.0
sa(dp81
g2
I0
sg3
F90.9375
sg4
I0
sg5
F-7.0625
sg6
F43.6875
sg7
F20.5
sg8
F-0.16
sg9
F-0.14
sg10
F10.19
sg11
F-0.0625
sg12
F347.5625
sg13
F0.0625
sg14
F0.0625
sg15
F-1.0
sa(dp82
g2
I0
sg3
F90.9375
sg4
I0
sg5
F-7.0625
sg6
F44.0625
sg7
F20.875
sg8
F-0.18
sg9
F-0.11
sg10
F10.16
sg11
F-0.125
sg12
F347.5625
sg13
F-0.1875
sg14
F0.0
sg15
F-1.0
sa(dp83
g2
I0
sg3
F90.9375
sg4
I0
sg5
F-6.6875
sg6
F44.0
sg7
F21.6875
sg8
F-0.23
sg9
F-0.1
sg10
F10.13
sg11
F-0.25
sg12
F347.5625
sg13
F-0.0625
sg14
F0.0625
sg15
F-1.0
sa(dp84
g2
I0
sg3
F90.9375
sg4
I0
sg5
F-7.0625
sg6
F44.0
sg7
F19.6875
sg8
F-0.25
sg9
F-0.11
sg10
F10.12
sg11
F-0.0625
sg12
F347.5625
sg13
F0.0625
sg14
F0.0
sg15
F-1.0
sa(dp85
g2
I0
sg3
F90.9375
sg4
I0
sg5
F-7.0625
sg6
F43.6875
sg7
F21.25
sg8
F-0.22
sg9
F-0.12
sg10
F10.18
sg11
F0.375
sg12
F347.5625
sg13
F0.3125
sg14
F-0.1875
sg15
F-1.0
sa(dp86
g2
I0
sg3
F90.9375
sg4
I0
sg5
F-7.5
sg6
F44.375
sg7
F22.0625
sg8
F-0.22
sg9
F-0.14
sg10
F10.16
sg11
F0.4375
sg12
F347.5625
sg13
F0.1875
sg14
F-0.4375
sg15
F-1.0
sa(dp87
g2
I0
sg3
F90.9375
sg4
I0
sg5
F-7.5
sg6
F43.25
sg7
F20.1875
sg8
F-0.25
sg9
F-0.1
sg10
F10.17
sg11
F0.3125
sg12
F347.5625
sg13
F-0.25
sg14
F0.1875
sg15
F-1.0
sa(dp88
g2
I0
sg3
F90.9375
sg4
I0
sg5
F-7.0625
sg6
F42.5625
sg7
F20.1875
sg8
F-0.19
sg9
F-0.07
sg10
F10.15
sg11
F-0.0625
sg12
F347.5625
sg13
F-0.0625
sg14
F0.1875
sg15
F-1.0
sa(dp89
g2
I0
sg3
F90.9375
sg4
I0
sg5
F-6.0
sg6
F43.0
sg7
F22.0625
sg8
F-0.19
sg9
F-0.15
sg10
F10.19
sg11
F0.0625
sg12
F347.5625
sg13
F0.3125
sg14
F-0.125
sg15
F-1.0
sa(dp90
g2
I0
sg3
F90.9375
sg4
I0
sg5
F-7.0625
sg6
F43.6875
sg7
F20.875
sg8
F-0.26
sg9
F-0.11
sg10
F10.14
sg11
F-0.0625
sg12
F347.5625
sg13
F0.1875
sg14
F-0.1875
sg15
F-1.0
sa(dp91
g2
I0
sg3
F90.9375
sg4
I0
sg5
F-7.0625
sg6
F43.0
sg7
F20.5
sg8
F-0.22
sg9
F-0.1
sg10
F10.17
sg11
F0.0
sg12
F347.5625
sg13
F-0.0625
sg14
F0.125
sg15
F-1.0
sa(dp92
g2
I0
sg3
F90.9375
sg4
I0
sg5
F-6.6875
sg6
F43.0
sg7
F20.5
sg8
F-0.26
sg9
F-0.11
sg10
F10.18
sg11
F-0.125
sg12
F347.5625
sg13
F0.0
sg14
F0.1875
sg15
F-1.0
sa(dp93
g2
I0
sg3
F90.9375
sg4
I0
sg5
F-7.0625
sg6
F43.0
sg7
F20.1875
sg8
F-0.22
sg9
F-0.08
sg10
F10.14
sg11
F0.0
sg12
F347.5625
sg13
F-0.0625
sg14
F-0.3125
sg15
F-1.0
sa(dp94
g2
I0
sg3
F90.9375
sg4
I0
sg5
F-7.0625
sg6
F43.6875
sg7
F20.875
sg8
F-0.22
sg9
F-0.12
sg10
F10.16
sg11
F-0.3125
sg12
F347.5625
sg13
F-0.1875
sg14
F-0.25
sg15
F-1.0
sa(dp95
g2
I0
sg3
F90.9375
sg4
I0
sg5
F-6.25
sg6
F43.25
sg7
F21.25
sg8
F-0.21
sg9
F-0.15
sg10
F10.17
sg11
F-0.25
sg12
F347.5625
sg13
F0.0625
sg14
F0.0
sg15
F-1.0
sa(dp96
g2
I0
sg3
F90.9375
sg4
I0
sg5
F-7.0625
sg6
F43.25
sg7
F20.5
sg8
F-0.21
sg9
F-0.16
sg10
F10.22
sg11
F0.125
sg12
F347.5625
sg13
F-0.0625
sg14
F-0.0625
sg15
F-1.0
sa(dp97
g2
I0
sg3
F90.9375
sg4
I0
sg5
F-7.0625
sg6
F43.6875
sg7
F20.875
sg8
F-0.19
sg9
F-0.13
sg10
F10.13
sg11
F-0.125
sg12
F347.5625
sg13
F-0.125
sg14
F0.1875
sg15
F-1.0
sa(dp98
g2
I0
sg3
F90.9375
sg4
I0
sg5
F-6.6875
sg6
F43.25
sg7
F20.5
sg8
F-0.23
sg9
F-0.15
sg10
F10.14
sg11
F-0.125
sg12
F347.5625
sg13
F0.25
sg14
F-0.125
sg15
F-1.0
sa(dp99
g2
I0
sg3
F90.9375
sg4
I0
sg5
F-7.75
sg6
F43.25
sg7
F21.6875
sg8
F-0.25
sg9
F-0.14
sg10
F10.17
sg11
F0.75
sg12
F347.5625
sg13
F0.125
sg14
F-0.125
sg15
F-1.0
sa(dp100
g2
I0
sg3
F90.9375
sg4
I0
sg5
F-7.5
sg6
F43.25
sg7
F20.5
sg8
F-0.18
sg9
F-0.12
sg10
F10.2
sg11
F0.1875
sg12
F347.5625
sg13
F-0.25
sg14
F0.0625
sg15
F-0.9375
sa(dp101
g2
I0
sg3
F90.9375
sg4
I0
sg5
F-7.5
sg6
F44.0625
sg7
F22.0625
sg8
F-0.18
sg9
F-0.1
sg10
F10.18
sg11
F0.0
sg12
F347.5625
sg13
F0.125
sg14
F-0.1875
sg15
F-0.9375
sa(dp102
g2
I0
sg3
F90.9375
sg4
I0
sg5
F-6.25
sg6
F43.25
sg7
F21.25
sg8
F-0.22
sg9
F-0.11
sg10
F10.18
sg11
F-0.125
sg12
F347.5625
sg13
F0.125
sg14
F0.125
sg15
F-0.9375
sa(dp103
g2
I0
sg3
F90.9375
sg4
I0
sg5
F-7.0625
sg6
F43.0
sg7
F21.25
sg8
F-0.24
sg9
F-0.09
sg10
F10.18
sg11
F0.375
sg12
F347.5625
sg13
F0.0
sg14
F-0.1875
sg15
F-0.9375
sa(dp104
g2
I0
sg3
F90.9375
sg4
I0
sg5
F-6.6875
sg6
F44.375
sg7
F20.875
sg8
F-0.26
sg9
F-0.06
sg10
F10.18
sg11
F0.3125
sg12
F347.5625
sg13
F0.125
sg14
F0.0625
sg15
F-0.9375
sa(dp105
g2
I0
sg3
F90.9375
sg4
I0
sg5
F-7.0625
sg6
F43.25
sg7
F21.25
sg8
F-0.22
sg9
F-0.17
sg10
F10.19
sg11
F-0.0625
sg12
F347.5625
sg13
F-0.1875
sg14
F0.0625
sg15
F-0.9375
sa(dp106
g2
I0
sg3
F90.9375
sg4
I0
sg5
F-7.0625
sg6
F43.25
sg7
F20.5
sg8
F-0.22
sg9
F-0.12
sg10
F10.12
sg11
F0.0
sg12
F347.5625
sg13
F-0.0625
sg14
F0.125
sg15
F-0.9375
sa(dp107
g2
I0
sg3
F90.9375
sg4
I0
sg5
F-6.0
sg6
F42.5625
sg7
F20.875
sg8
F-0.21
sg9
F-0.15
sg10
F10.21
sg11
F-0.0625
sg12
F347.5625
sg13
F-0.0625
sg14
F0.0625
sg15
F-0.9375
sa(dp108
g2
I0
sg3
F90.9375
sg4
I0
sg5
F-7.5
sg6
F43.6875
sg7
F20.1875
sg8
F-0.25
sg9
F-0.09
sg10
F10.14
sg11
F0.4375
sg12
F347.5625
sg13
F0.0625
sg14
F-0.125
sg15
F-0.9375
sa(dp109
g2
I0
sg3
F90.9375
sg4
I0
sg5
F-7.0625
sg6
F43.25
sg7
F20.1875
sg8
F-0.2
sg9
F-0.1
sg10
F10.18
sg11
F0.0625
sg12
F347.5625
sg13
F0.0
sg14
F-0.375
sg15
F-0.9375
sa(dp110
g2
I0
sg3
F90.9375
sg4
I0
sg5
F-7.0625
sg6
F43.25
sg7
F21.25
sg8
F-0.14
sg9
F0.07
sg10
F10.17
sg11
F0.6875
sg12
F347.5625
sg13
F0.1875
sg14
F0.625
sg15
F-0.9375
sa(dp111
g2
I0
sg3
F90.9375
sg4
I0
sg5
F-7.0625
sg6
F43.25
sg7
F20.1875
sg8
F-0.27
sg9
F-0.17
sg10
F10.15
sg11
F-0.5625
sg12
F347.5
sg13
F0.375
sg14
F-0.375
sg15
F-0.9375
sa(dp112
g2
I0
sg3
F90.9375
sg4
I0
sg5
F-7.375
sg6
F43.0625
sg7
F22.0625
sg8
F-0.21
sg9
F-0.14
sg10
F10.06
sg11
F-0.875
sg12
F347.5625
sg13
F0.3125
sg14
F-0.3125
sg15
F-1.0
sa(dp113
g2
I0
sg3
F90.9375
sg4
I0
sg5
F-7.375
sg6
F43.375
sg7
F21.6875
sg8
F-0.19
sg9
F-0.07
sg10
F10.14
sg11
F-0.875
sg12
F347.5625
sg13
F0.0
sg14
F0.5625
sg15
F-1.0
sa(dp114
g2
I0
sg3
F90.9375
sg4
I0
sg5
F-7.75
sg6
F44.1875
sg7
F21.25
sg8
F-0.16
sg9
F-0.1
sg10
F10.14
sg11
F-0.125
sg12
F347.5625
sg13
F0.0
sg14
F0.0
sg15
F-1.0
sa.