(lp0
(dp1
S'left_enc'
p2
I0
sS'euler_z'
p3
F91.125
sS'right_enc'
p4
I0
sS'mag_y'
p5
F-24.1875
sS'mag_x'
p6
F7.5625
sS'mag_z'
p7
F-15.5
sS'accel_z'
p8
F-0.21
sS'accel_x'
p9
F-0.18
sS'accel_y'
p10
F10.18
sS'gyro_z'
p11
F-1.375
sS'euler_x'
p12
F2.1875
sS'gyro_x'
p13
F-0.5625
sS'gyro_y'
p14
F0.625
sS'euler_y'
p15
F-0.4375
sa(dp16
g2
I0
sg3
F91.125
sg4
I0
sg5
F-24.1875
sg6
F9.375
sg7
F-13.875
sg8
F-0.31
sg9
F-0.17
sg10
F10.15
sg11
F0.1875
sg12
F2.25
sg13
F0.5
sg14
F-0.625
sg15
F-0.5
sa(dp17
g2
I0
sg3
F91.125
sg4
I0
sg5
F-24.875
sg6
F9.0
sg7
F-13.5
sg8
F-0.13
sg9
F-0.12
sg10
F10.15
sg11
F-0.125
sg12
F2.25
sg13
F-0.25
sg14
F-0.1875
sg15
F-0.5
sa(dp18
g2
I0
sg3
F91.125
sg4
I0
sg5
F-24.875
sg6
F8.0
sg7
F-13.875
sg8
F-0.17
sg9
F-0.12
sg10
F10.19
sg11
F0.25
sg12
F2.25
sg13
F0.0
sg14
F-0.25
sg15
F-0.5
sa(dp19
g2
I0
sg3
F91.125
sg4
I0
sg5
F-24.875
sg6
F8.25
sg7
F-12.6875
sg8
F-0.24
sg9
F-0.14
sg10
F10.12
sg11
F-0.1875
sg12
F2.25
sg13
F0.0625
sg14
F0.4375
sg15
F-0.5
sa(dp20
g2
I0
sg3
F91.125
sg4
I0
sg5
F-25.25
sg6
F8.6875
sg7
F-12.6875
sg8
F-0.19
sg9
F-0.1
sg10
F10.14
sg11
F-0.125
sg12
F2.25
sg13
F0.0625
sg14
F0.1875
sg15
F-0.5
sa(dp21
g2
I0
sg3
F91.125
sg4
I0
sg5
F-24.875
sg6
F7.5625
sg7
F-13.5
sg8
F-0.1
sg9
F-0.15
sg10
F10.16
sg11
F-0.25
sg12
F2.25
sg13
F0.0625
sg14
F0.1875
sg15
F-0.5
sa(dp22
g2
I0
sg3
F91.125
sg4
I0
sg5
F-24.875
sg6
F8.25
sg7
F-13.5
sg8
F-0.12
sg9
F-0.22
sg10
F10.18
sg11
F-0.25
sg12
F2.25
sg13
F0.0625
sg14
F0.1875
sg15
F-0.5
sa(dp23
g2
I0
sg3
F91.125
sg4
I0
sg5
F-24.875
sg6
F8.25
sg7
F-14.25
sg8
F-0.09
sg9
F-0.12
sg10
F10.2
sg11
F-0.5
sg12
F2.25
sg13
F-0.3125
sg14
F0.0
sg15
F-0.5
sa(dp24
g2
I0
sg3
F91.125
sg4
I0
sg5
F-24.5
sg6
F8.0
sg7
F-13.5
sg8
F-0.25
sg9
F-0.39
sg10
F10.27
sg11
F-0.8125
sg12
F2.3125
sg13
F0.0625
sg14
F0.0625
sg15
F-0.5
sa(dp25
g2
I0
sg3
F91.125
sg4
I0
sg5
F-24.5
sg6
F8.6875
sg7
F-13.0625
sg8
F0.09
sg9
F0.21
sg10
F10.35
sg11
F3.125
sg12
F2.1875
sg13
F1.5
sg14
F1.0625
sg15
F-0.4375
sa(dp26
g2
I0
sg3
F91.1875
sg4
I0
sg5
F-24.1875
sg6
F8.25
sg7
F-13.0625
sg8
F0.37
sg9
F-0.38
sg10
F10.23
sg11
F0.5625
sg12
F2.0
sg13
F0.0625
sg14
F-1.4375
sg15
F-0.4375
sa(dp27
g2
I0
sg3
F91.25
sg4
I0
sg5
F-24.875
sg6
F7.1875
sg7
F-12.25
sg8
F-0.29
sg9
F-0.33
sg10
F10.14
sg11
F-0.6875
sg12
F2.125
sg13
F0.8125
sg14
F-1.9375
sg15
F-0.4375
sa(dp28
g2
I0
sg3
F91.25
sg4
I0
sg5
F-24.5
sg6
F8.0
sg7
F-12.25
sg8
F-0.2
sg9
F-0.23
sg10
F10.2
sg11
F0.1875
sg12
F2.125
sg13
F-0.25
sg14
F0.0625
sg15
F-0.4375
sa(dp29
g2
I0
sg3
F91.25
sg4
I0
sg5
F-25.25
sg6
F7.5625
sg7
F-12.0
sg8
F-0.58
sg9
F-0.18
sg10
F10.03
sg11
F0.0
sg12
F2.125
sg13
F-0.0625
sg14
F0.625
sg15
F-0.375
sa(dp30
g2
I0
sg3
F90.375
sg4
I0
sg5
F-24.875
sg6
F8.0
sg7
F-13.0625
sg8
F-1.66
sg9
F-0.67
sg10
F9.96
sg11
F-2.3125
sg12
F2.0625
sg13
F-27.4375
sg14
F-1.3125
sg15
F-0.4375
sa(dp31
g2
I0
sg3
F86.875
sg4
I0
sg5
F-25.25
sg6
F8.0
sg7
F-12.6875
sg8
F1.16
sg9
F-0.49
sg10
F11.17
sg11
F-11.3125
sg12
F0.9375
sg13
F-30.625
sg14
F46.5625
sg15
F-1.0
sa(dp32
g2
I0
sg3
F87.625
sg4
I0
sg5
F-25.25
sg6
F10.0625
sg7
F-14.25
sg8
F-0.74
sg9
F0.67
sg10
F10.22
sg11
F-2.5
sg12
F359.1875
sg13
F13.0
sg14
F14.5625
sg15
F-2.0
sa(dp33
g2
I0
sg3
F87.9375
sg4
I0
sg5
F-27.25
sg6
F11.5625
sg7
F-11.1875
sg8
F-0.51
sg9
F-0.49
sg10
F10.62
sg11
F-6.875
sg12
F0.125
sg13
F0.5
sg14
F-22.8125
sg15
F-2.0625
sa(dp34
g2
I0
sg3
F87.5
sg4
I0
sg5
F-27.5625
sg6
F12.25
sg7
F-10.375
sg8
F-1.19
sg9
F-0.3
sg10
F10.04
sg11
F-10.0
sg12
F2.1875
sg13
F-11.875
sg14
F-9.125
sg15
F-2.875
sa(dp35
g2
I0
sg3
F85.8125
sg4
I0
sg5
F-30.1875
sg6
F16.6875
sg7
F-8.0
sg8
F-0.41
sg9
F-0.52
sg10
F10.84
sg11
F-0.875
sg12
F3.125
sg13
F-20.5
sg14
F-8.5
sg15
F-3.375
sa(dp36
g2
I0
sg3
F85.875
sg4
I0
sg5
F-30.875
sg6
F18.875
sg7
F-7.6875
sg8
F-0.39
sg9
F-0.64
sg10
F10.21
sg11
F13.4375
sg12
F3.625
sg13
F11.3125
sg14
F-20.1875
sg15
F-2.6875
sa(dp37
g2
I0
sg3
F87.0625
sg4
I0
sg5
F-32.75
sg6
F23.1875
sg7
F-2.1875
sg8
F-0.16
sg9
F-0.84
sg10
F9.65
sg11
F6.0625
sg12
F4.125
sg13
F17.0625
sg14
F-8.0625
sg15
F-1.875
sa(dp38
g2
I0
sg3
F88.5625
sg4
I0
sg5
F-32.0625
sg6
F25.0
sg7
F1.375
sg8
F0.08
sg9
F-0.84
sg10
F10.01
sg11
F5.0
sg12
F3.375
sg13
F19.375
sg14
F16.125
sg15
F-1.625
sa(dp39
g2
I0
sg3
F89.9375
sg4
I0
sg5
F-32.0
sg6
F29.1875
sg7
F7.6875
sg8
F0.5
sg9
F-0.07
sg10
F9.32
sg11
F16.0
sg12
F0.875
sg13
F15.125
sg14
F23.375
sg15
F-0.8125
sa(dp40
g2
I0
sg3
F90.4375
sg4
I0
sg5
F-31.0
sg6
F30.875
sg7
F14.25
sg8
F0.61
sg9
F-0.29
sg10
F9.73
sg11
F6.5
sg12
F358.9375
sg13
F2.25
sg14
F25.0625
sg15
F-0.125
sa(dp41
g2
I0
sg3
F91.25
sg4
I0
sg5
F-32.0625
sg6
F33.0625
sg7
F17.25
sg8
F1.09
sg9
F0.22
sg10
F10.07
sg11
F-0.9375
sg12
F357.25
sg13
F17.5625
sg14
F16.4375
sg15
F0.0
sa(dp42
g2
I0
sg3
F93.1875
sg4
I0
sg5
F-27.0625
sg6
F34.75
sg7
F22.25
sg8
F1.13
sg9
F0.63
sg10
F8.7
sg11
F9.0
sg12
F356.8125
sg13
F23.3125
sg14
F-0.875
sg15
F-0.0625
sa(dp43
g2
I0
sg3
F94.0
sg4
I0
sg5
F-26.1875
sg6
F36.1875
sg7
F24.5
sg8
F1.92
sg9
F-1.22
sg10
F11.3
sg11
F-2.6875
sg12
F357.5
sg13
F16.125
sg14
F0.0625
sg15
F0.0625
sa(dp44
g2
I0
sg3
F95.4375
sg4
I0
sg5
F-24.25
sg6
F38.75
sg7
F25.25
sg8
F0.93
sg9
F0.14
sg10
F10.48
sg11
F4.75
sg12
F355.8125
sg13
F8.1875
sg14
F15.9375
sg15
F0.4375
sa(dp45
g2
I0
sg3
F94.8125
sg4
I0
sg5
F-24.5
sg6
F39.875
sg7
F26.375
sg8
F0.14
sg9
F0.75
sg10
F10.02
sg11
F-4.0
sg12
F354.9375
sg13
F-3.0
sg14
F12.75
sg15
F0.1875
sa(dp46
g2
I0
sg3
F94.75
sg4
I0
sg5
F-23.5625
sg6
F39.5
sg7
F26.375
sg8
F-0.45
sg9
F0.27
sg10
F10.18
sg11
F12.75
sg12
F355.4375
sg13
F6.625
sg14
F-26.0
sg15
F0.4375
sa(dp47
g2
I0
sg3
F95.8125
sg4
I0
sg5
F-24.25
sg6
F41.6875
sg7
F28.0
sg8
F-0.86
sg9
F-0.22
sg10
F9.66
sg11
F14.25
sg12
F356.3125
sg13
F17.375
sg14
F-17.9375
sg15
F1.4375
sa(dp48
g2
I0
sg3
F96.1875
sg4
I0
sg5
F-24.0625
sg6
F42.0
sg7
F27.25
sg8
F-0.32
sg9
F0.71
sg10
F8.71
sg11
F-5.5625
sg12
F355.1875
sg13
F-5.625
sg14
F24.4375
sg15
F1.75
sa(dp49
g2
I0
sg3
F92.4375
sg4
I0
sg5
F-24.375
sg6
F42.25
sg7
F27.5625
sg8
F0.96
sg9
F3.8
sg10
F14.28
sg11
F-17.625
sg12
F354.375
sg13
F-44.25
sg14
F32.0625
sg15
F0.75
sa(dp50
g2
I0
sg3
F91.875
sg4
I0
sg5
F-24.0625
sg6
F42.25
sg7
F28.375
sg8
F-1.4
sg9
F-1.07
sg10
F9.93
sg11
F-6.125
sg12
F354.625
sg13
F-3.625
sg14
F-6.3125
sg15
F0.0625
sa(dp51
g2
I0
sg3
F91.375
sg4
I0
sg5
F-23.0625
sg6
F43.375
sg7
F28.25
sg8
F0.12
sg9
F-0.75
sg10
F10.25
sg11
F-3.375
sg12
F355.3125
sg13
F4.375
sg14
F-10.1875
sg15
F-0.25
sa(dp52
g2
I0
sg3
F91.75
sg4
I0
sg5
F-23.6875
sg6
F44.1875
sg7
F28.6875
sg8
F-0.69
sg9
F0.91
sg10
F9.94
sg11
F2.0
sg12
F355.1875
sg13
F-0.375
sg14
F2.3125
sg15
F-0.1875
sa(dp53
g2
I0
sg3
F91.75
sg4
I0
sg5
F-24.375
sg6
F43.375
sg7
F29.5
sg8
F-0.42
sg9
F-0.6
sg10
F9.91
sg11
F-1.1875
sg12
F355.25
sg13
F1.3125
sg14
F-0.0625
sg15
F-0.25
sa(dp54
g2
I0
sg3
F91.75
sg4
I0
sg5
F-23.25
sg6
F43.0
sg7
F27.1875
sg8
F-0.34
sg9
F0.06
sg10
F10.07
sg11
F0.625
sg12
F355.25
sg13
F0.0625
sg14
F0.4375
sg15
F-0.25
sa(dp55
g2
I0
sg3
F91.75
sg4
I0
sg5
F-23.6875
sg6
F43.75
sg7
F27.5
sg8
F-0.26
sg9
F-0.22
sg10
F10.17
sg11
F-0.375
sg12
F355.25
sg13
F0.125
sg14
F-0.125
sg15
F-0.25
sa(dp56
g2
I0
sg3
F91.75
sg4
I0
sg5
F-23.25
sg6
F43.0
sg7
F27.5
sg8
F-0.25
sg9
F-0.02
sg10
F10.15
sg11
F0.3125
sg12
F355.25
sg13
F0.1875
sg14
F0.1875
sg15
F-0.25
sa(dp57
g2
I0
sg3
F91.75
sg4
I0
sg5
F-23.6875
sg6
F43.0
sg7
F27.875
sg8
F-0.22
sg9
F-0.16
sg10
F10.17
sg11
F-0.1875
sg12
F355.3125
sg13
F0.0
sg14
F-0.0625
sg15
F-0.25
sa(dp58
g2
I0
sg3
F91.6875
sg4
I0
sg5
F-23.25
sg6
F42.25
sg7
F27.875
sg8
F-0.38
sg9
F-0.13
sg10
F9.8
sg11
F0.25
sg12
F355.3125
sg13
F0.0625
sg14
F0.125
sg15
F-0.25
sa(dp59
g2
I0
sg3
F91.6875
sg4
I0
sg5
F-23.6875
sg6
F43.375
sg7
F28.6875
sg8
F-0.69
sg9
F-0.98
sg10
F11.19
sg11
F-2.0625
sg12
F355.4375
sg13
F-0.0625
sg14
F-0.0625
sg15
F-0.3125
sa(dp60
g2
I0
sg3
F91.5
sg4
I0
sg5
F-22.5625
sg6
F43.375
sg7
F28.25
sg8
F0.01
sg9
F-0.12
sg10
F10.14
sg11
F2.9375
sg12
F355.375
sg13
F2.125
sg14
F2.8125
sg15
F-0.125
sa(dp61
g2
I0
sg3
F91.6875
sg4
I0
sg5
F-24.0
sg6
F43.375
sg7
F27.875
sg8
F-0.57
sg9
F-0.67
sg10
F10.05
sg11
F0.4375
sg12
F355.4375
sg13
F-0.125
sg14
F-4.5625
sg15
F-0.0625
sa(dp62
g2
I0
sg3
F91.5
sg4
I0
sg5
F-24.0
sg6
F43.375
sg7
F28.5625
sg8
F0.47
sg9
F0.85
sg10
F10.19
sg11
F3.875
sg12
F355.8125
sg13
F-2.0
sg14
F-20.5625
sg15
F0.125
sa(dp63
g2
I0
sg3
F89.8125
sg4
I0
sg5
F-23.6875
sg6
F44.5
sg7
F27.0625
sg8
F1.33
sg9
F4.94
sg10
F11.76
sg11
F-17.4375
sg12
F1.6875
sg13
F-45.0
sg14
F-105.75
sg15
F-0.4375
sa(dp64
g2
I0
sg3
F90.5
sg4
I0
sg5
F-25.5
sg6
F49.25
sg7
F16.6875
sg8
F1.47
sg9
F-2.36
sg10
F11.54
sg11
F-9.5
sg12
F18.875
sg13
F54.875
sg14
F-241.0
sg15
F-2.625
sa(dp65
g2
I0
sg3
F96.25
sg4
I0
sg5
F-25.375
sg6
F51.5625
sg7
F5.6875
sg8
F-1.15
sg9
F-1.86
sg10
F7.92
sg11
F68.8125
sg12
F34.25
sg13
F83.5
sg14
F-210.0625
sg15
F-0.5625
sa(dp66
g2
I0
sg3
F97.375
sg4
I0
sg5
F-30.5625
sg6
F46.25
sg7
F-11.0625
sg8
F-0.4
sg9
F1.75
sg10
F8.03
sg11
F49.75
sg12
F45.375
sg13
F-57.4375
sg14
F-169.4375
sg15
F2.6875
sa(dp67
g2
I0
sg3
F91.625
sg4
I0
sg5
F-33.1875
sg6
F38.75
sg7
F-28.0
sg8
F1.64
sg9
F-0.65
sg10
F9.65
sg11
F-26.5625
sg12
F60.375
sg13
F-77.0625
sg14
F-176.1875
sg15
F2.0625
sa(dp68
g2
I0
sg3
F88.1875
sg4
I0
sg5
F-31.0625
sg6
F35.0625
sg7
F-37.0625
sg8
F-0.12
sg9
F-1.79
sg10
F10.11
sg11
F-25.125
sg12
F73.625
sg13
F-30.4375
sg14
F-113.1875
sg15
F0.0
sa(dp69
g2
I0
sg3
F86.1875
sg4
I0
sg5
F-27.6875
sg6
F31.5625
sg7
F-47.0
sg8
F-0.41
sg9
F-0.63
sg10
F10.98
sg11
F-0.375
sg12
F79.75
sg13
F-16.0
sg14
F-40.1875
sg15
F-0.9375
sa(dp70
g2
I0
sg3
F86.625
sg4
I0
sg5
F-25.6875
sg6
F29.5
sg7
F-48.25
sg8
F0.0
sg9
F0.1
sg10
F10.5
sg11
F12.8125
sg12
F81.25
sg13
F22.0
sg14
F-23.1875
sg15
F-0.0625
sa(dp71
g2
I0
sg3
F89.25
sg4
I0
sg5
F-25.6875
sg6
F28.0
sg7
F-48.5
sg8
F-0.47
sg9
F0.14
sg10
F9.26
sg11
F17.8125
sg12
F81.125
sg13
F35.625
sg14
F-18.5625
sg15
F1.5625
sa(dp72
g2
I0
sg3
F89.6875
sg4
I0
sg5
F-27.875
sg6
F26.5625
sg7
F-48.6875
sg8
F-0.76
sg9
F4.83
sg10
F15.59
sg11
F-29.1875
sg12
F83.125
sg13
F-39.375
sg14
F-56.5625
sg15
F1.3125
sa(dp73
g2
I0
sg3
F88.8125
sg4
I0
sg5
F-26.6875
sg6
F25.0625
sg7
F-50.1875
sg8
F0.89
sg9
F3.51
sg10
F10.53
sg11
F7.875
sg12
F85.8125
sg13
F-2.75
sg14
F27.25
sg15
F0.25
sa(dp74
g2
I0
sg3
F89.25
sg4
I0
sg5
F-27.0
sg6
F25.1875
sg7
F-51.6875
sg8
F-0.94
sg9
F0.45
sg10
F10.1
sg11
F0.1875
sg12
F85.75
sg13
F1.875
sg14
F12.0
sg15
F0.0
sa(dp75
g2
I0
sg3
F89.25
sg4
I0
sg5
F-25.5625
sg6
F24.875
sg7
F-50.0
sg8
F-0.06
sg9
F-0.16
sg10
F10.2
sg11
F1.875
sg12
F85.875
sg13
F-2.0625
sg14
F0.6875
sg15
F-0.0625
sa(dp76
g2
I0
sg3
F89.25
sg4
I0
sg5
F-27.375
sg6
F24.875
sg7
F-50.375
sg8
F-0.33
sg9
F-0.14
sg10
F10.22
sg11
F-0.4375
sg12
F85.8125
sg13
F-0.6875
sg14
F-0.5
sg15
F-0.0625
sa(dp77
g2
I0
sg3
F89.375
sg4
I0
sg5
F-26.25
sg6
F25.1875
sg7
F-49.5625
sg8
F-0.39
sg9
F-0.05
sg10
F10.07
sg11
F0.4375
sg12
F85.875
sg13
F0.0625
sg14
F0.3125
sg15
F-0.0625
sa(dp78
g2
I0
sg3
F89.5625
sg4
I0
sg5
F-26.6875
sg6
F25.1875
sg7
F-50.375
sg8
F-0.37
sg9
F-0.18
sg10
F10.17
sg11
F0.125
sg12
F85.9375
sg13
F0.1875
sg14
F0.0
sg15
F-0.125
sa(dp79
g2
I0
sg3
F89.75
sg4
I0
sg5
F-26.25
sg6
F26.25
sg7
F-51.1875
sg8
F-0.28
sg9
F-0.11
sg10
F10.14
sg11
F0.125
sg12
F86.0
sg13
F-0.125
sg14
F0.0625
sg15
F-0.1875
sa(dp80
g2
I0
sg3
F89.875
sg4
I0
sg5
F-26.6875
sg6
F25.1875
sg7
F-50.375
sg8
F-0.27
sg9
F-0.18
sg10
F10.15
sg11
F-0.0625
sg12
F86.0625
sg13
F-0.0625
sg14
F0.0
sg15
F-0.25
sa(dp81
g2
I0
sg3
F90.0
sg4
I0
sg5
F-26.6875
sg6
F25.1875
sg7
F-50.75
sg8
F-0.27
sg9
F-0.15
sg10
F10.19
sg11
F0.0625
sg12
F86.125
sg13
F0.0
sg14
F-0.1875
sg15
F-0.3125
sa(dp82
g2
I0
sg3
F90.125
sg4
I0
sg5
F-25.875
sg6
F25.1875
sg7
F-50.75
sg8
F-0.25
sg9
F-0.25
sg10
F9.91
sg11
F-2.75
sg12
F86.1875
sg13
F0.6875
sg14
F0.5625
sg15
F-0.375
sa(dp83
g2
I0
sg3
F90.0
sg4
I0
sg5
F-25.5625
sg6
F25.875
sg7
F-49.5625
sg8
F-0.69
sg9
F0.15
sg10
F9.99
sg11
F0.4375
sg12
F86.125
sg13
F-4.875
sg14
F4.875
sg15
F-0.4375
sa(dp84
g2
I0
sg3
F89.375
sg4
I0
sg5
F-26.25
sg6
F25.875
sg7
F-51.5625
sg8
F-0.14
sg9
F-0.81
sg10
F10.66
sg11
F0.5625
sg12
F86.5
sg13
F-10.6875
sg14
F-4.4375
sg15
F-0.375
sa(dp85
g2
I0
sg3
F89.6875
sg4
I0
sg5
F-26.25
sg6
F24.875
sg7
F-50.75
sg8
F-1.54
sg9
F1.01
sg10
F12.48
sg11
F-4.25
sg12
F87.9375
sg13
F28.1875
sg14
F-33.75
sg15
F-0.4375
sa(dp86
g2
I0
sg3
F94.1875
sg4
I0
sg5
F-27.75
sg6
F23.0
sg7
F-49.5625
sg8
F-4.99
sg9
F-0.83
sg10
F9.09
sg11
F15.0
sg12
F90.875
sg13
F58.4375
sg14
F-42.4375
sg15
F0.125
sa(dp87
g2
I0
sg3
F94.25
sg4
I0
sg5
F-32.25
sg6
F19.0
sg7
F-47.6875
sg8
F-3.55
sg9
F-0.91
sg10
F8.77
sg11
F8.375
sg12
F90.5
sg13
F-32.125
sg14
F19.4375
sg15
F0.8125
sa(dp88
g2
I0
sg3
F91.8125
sg4
I0
sg5
F-36.875
sg6
F16.6875
sg7
F-47.0
sg8
F-1.84
sg9
F0.09
sg10
F9.31
sg11
F-14.5
sg12
F88.8125
sg13
F-10.75
sg14
F20.0625
sg15
F0.5625
sa(dp89
g2
I0
sg3
F92.875
sg4
I0
sg5
F-41.375
sg6
F16.25
sg7
F-45.5
sg8
F-2.03
sg9
F-0.77
sg10
F8.33
sg11
F-8.625
sg12
F89.0625
sg13
F16.0
sg14
F15.75
sg15
F-0.5625
sa(dp90
g2
I0
sg3
F92.875
sg4
I0
sg5
F-45.75
sg6
F16.25
sg7
F-45.75
sg8
F-1.62
sg9
F0.26
sg10
F10.37
sg11
F-8.1875
sg12
F88.4375
sg13
F-10.6875
sg14
F5.875
sg15
F-0.8125
sa(dp91
g2
I0
sg3
F92.875
sg4
I0
sg5
F-54.375
sg6
F16.0
sg7
F-45.0625
sg8
F-0.97
sg9
F-0.6
sg10
F11.35
sg11
F-9.5
sg12
F89.125
sg13
F9.9375
sg14
F3.625
sg15
F-1.3125
sa(dp92
g2
I0
sg3
F94.0
sg4
I0
sg5
F-59.75
sg6
F16.0
sg7
F-43.5625
sg8
F-0.94
sg9
F0.32
sg10
F10.35
sg11
F-15.75
sg12
F89.0
sg13
F3.5
sg14
F22.1875
sg15
F-2.1875
sa(dp93
g2
I0
sg3
F94.3125
sg4
I0
sg5
F-70.5625
sg6
F15.5625
sg7
F-36.25
sg8
F0.05
sg9
F0.49
sg10
F10.4
sg11
F6.6875
sg12
F87.125
sg13
F0.9375
sg14
F27.625
sg15
F-2.125
sa(dp94
g2
I0
sg3
F95.0
sg4
I0
sg5
F-76.5625
sg6
F12.5625
sg7
F-26.25
sg8
F1.64
sg9
F0.81
sg10
F10.43
sg11
F8.6875
sg12
F85.5
sg13
F12.75
sg14
F-8.8125
sg15
F-1.125
sa(dp95
g2
I0
sg3
F95.1875
sg4
I0
sg5
F-79.375
sg6
F10.0625
sg7
F-20.5
sg8
F1.59
sg9
F-0.42
sg10
F9.19
sg11
F12.6875
sg12
F85.9375
sg13
F-11.25
sg14
F-18.75
sg15
F-0.1875
sa(dp96
g2
I0
sg3
F93.625
sg4
I0
sg5
F-82.0625
sg6
F4.25
sg7
F-14.25
sg8
F2.0
sg9
F-1.13
sg10
F10.19
sg11
F10.875
sg12
F85.4375
sg13
F-22.25
sg14
F20.6875
sg15
F0.4375
sa(dp97
g2
I0
sg3
F92.0625
sg4
I0
sg5
F-81.375
sg6
F3.6875
sg7
F-14.75
sg8
F0.94
sg9
F-0.73
sg10
F9.88
sg11
F10.25
sg12
F82.625
sg13
F-15.1875
sg14
F15.875
sg15
F1.5625
sa(dp98
g2
I0
sg3
F91.0
sg4
I0
sg5
F-82.25
sg6
F2.6875
sg7
F-14.6875
sg8
F1.22
sg9
F0.68
sg10
F10.17
sg11
F-10.0
sg12
F82.8125
sg13
F-9.625
sg14
F-8.0
sg15
F1.125
sa(dp99
g2
I0
sg3
F89.3125
sg4
I0
sg5
F-82.1875
sg6
F3.0625
sg7
F-13.5
sg8
F1.68
sg9
F-3.63
sg10
F11.13
sg11
F-7.8125
sg12
F85.3125
sg13
F-8.3125
sg14
F-60.5625
sg15
F0.625
sa(dp100
g2
I0
sg3
F88.625
sg4
I0
sg5
F-82.375
sg6
F4.0625
sg7
F-16.5625
sg8
F0.52
sg9
F0.9
sg10
F10.3
sg11
F-1.9375
sg12
F85.25
sg13
F0.75
sg14
F10.9375
sg15
F0.125
sa(dp101
g2
I0
sg3
F88.9375
sg4
I0
sg5
F-81.0625
sg6
F4.0625
sg7
F-16.875
sg8
F-0.03
sg9
F0.69
sg10
F10.03
sg11
F2.9375
sg12
F85.5
sg13
F-0.5
sg14
F7.3125
sg15
F0.0
sa(dp102
g2
I0
sg3
F89.0625
sg4
I0
sg5
F-80.0
sg6
F4.5
sg7
F-16.0625
sg8
F-0.15
sg9
F0.77
sg10
F9.44
sg11
F3.875
sg12
F85.4375
sg13
F1.125
sg14
F1.6875
sg15
F0.0625
sa(dp103
g2
I0
sg3
F89.125
sg4
I0
sg5
F-80.0625
sg6
F4.0625
sg7
F-15.375
sg8
F-0.06
sg9
F-0.43
sg10
F10.39
sg11
F-0.75
sg12
F85.4375
sg13
F-0.0625
sg14
F-0.625
sg15
F0.0625
sa(dp104
g2
I0
sg3
F89.1875
sg4
I0
sg5
F-79.5625
sg6
F4.0625
sg7
F-16.0625
sg8
F-0.03
sg9
F-0.05
sg10
F10.1
sg11
F-0.1875
sg12
F85.4375
sg13
F-0.0625
sg14
F0.625
sg15
F0.0625
sa(dp105
g2
I0
sg3
F89.3125
sg4
I0
sg5
F-80.0
sg6
F3.6875
sg7
F-16.5
sg8
F-0.12
sg9
F-0.13
sg10
F10.11
sg11
F-0.0625
sg12
F85.5
sg13
F0.0
sg14
F0.0
sg15
F0.0
sa(dp106
g2
I0
sg3
F89.375
sg4
I0
sg5
F-79.5625
sg6
F4.0625
sg7
F-15.75
sg8
F-0.09
sg9
F-0.03
sg10
F10.15
sg11
F0.125
sg12
F85.5
sg13
F0.0
sg14
F0.0
sg15
F0.0
sa(dp107
g2
I0
sg3
F89.4375
sg4
I0
sg5
F-80.375
sg6
F4.5
sg7
F-16.0625
sg8
F-0.11
sg9
F-0.11
sg10
F10.14
sg11
F-0.0625
sg12
F85.5625
sg13
F0.125
sg14
F-0.0625
sg15
F0.0
sa(dp108
g2
I0
sg3
F89.5
sg4
I0
sg5
F-79.5625
sg6
F4.5
sg7
F-15.75
sg8
F-0.12
sg9
F-0.08
sg10
F10.16
sg11
F0.0625
sg12
F85.5625
sg13
F0.0625
sg14
F0.0625
sg15
F0.0
sa(dp109
g2
I0
sg3
F89.5625
sg4
I0
sg5
F-80.0
sg6
F4.75
sg7
F-16.5
sg8
F-0.09
sg9
F-0.1
sg10
F10.16
sg11
F0.0
sg12
F85.625
sg13
F0.125
sg14
F0.0625
sg15
F-0.0625
sa(dp110
g2
I0
sg3
F89.625
sg4
I0
sg5
F-80.0
sg6
F4.5
sg7
F-17.25
sg8
F-0.12
sg9
F-0.08
sg10
F10.18
sg11
F0.1875
sg12
F85.625
sg13
F0.0625
sg14
F0.25
sg15
F-0.0625
sa(dp111
g2
I0
sg3
F89.6875
sg4
I0
sg5
F-80.0
sg6
F4.5
sg7
F-17.25
sg8
F-0.12
sg9
F-0.08
sg10
F10.18
sg11
F0.0625
sg12
F85.625
sg13
F0.0625
sg14
F0.0
sg15
F-0.0625
sa(dp112
g2
I0
sg3
F89.6875
sg4
I0
sg5
F-79.5625
sg6
F4.0625
sg7
F-16.5
sg8
F-0.08
sg9
F-0.07
sg10
F10.16
sg11
F0.0
sg12
F85.6875
sg13
F0.0
sg14
F-0.125
sg15
F-0.125
sa(dp113
g2
I0
sg3
F89.75
sg4
I0
sg5
F-79.25
sg6
F4.75
sg7
F-15.25
sg8
F-0.11
sg9
F-0.07
sg10
F10.15
sg11
F0.0
sg12
F85.6875
sg13
F-0.0625
sg14
F0.0625
sg15
F-0.125
sa(dp114
g2
I0
sg3
F89.75
sg4
I0
sg5
F-80.375
sg6
F4.0625
sg7
F-17.25
sg8
F-0.09
sg9
F-0.09
sg10
F10.15
sg11
F0.0
sg12
F85.6875
sg13
F-0.0625
sg14
F0.0625
sg15
F-0.125
sa.