(lp0
(dp1
S'left_enc'
p2
I0
sS'euler_z'
p3
F90.875
sS'right_enc'
p4
I0
sS'mag_y'
p5
F-23.0
sS'mag_x'
p6
F19.0
sS'mag_z'
p7
F-12.375
sS'accel_z'
p8
F-0.18
sS'accel_x'
p9
F-0.16
sS'accel_y'
p10
F10.15
sS'gyro_z'
p11
F-0.0625
sS'euler_x'
p12
F5.75
sS'gyro_x'
p13
F0.0
sS'gyro_y'
p14
F0.125
sS'euler_y'
p15
F-0.125
sa(dp16
g2
I0
sg3
F90.875
sg4
I0
sg5
F-23.0
sg6
F20.0625
sg7
F-12.0625
sg8
F-0.15
sg9
F-0.13
sg10
F10.17
sg11
F0.0
sg12
F5.75
sg13
F0.0625
sg14
F0.1875
sg15
F-0.125
sa(dp17
g2
I0
sg3
F90.875
sg4
I0
sg5
F-23.0
sg6
F19.0
sg7
F-11.25
sg8
F-0.04
sg9
F0.03
sg10
F10.45
sg11
F-1.25
sg12
F5.75
sg13
F0.125
sg14
F0.5
sg15
F-0.1875
sa(dp18
g2
I0
sg3
F90.875
sg4
I0
sg5
F-14.0
sg6
F12.5
sg7
F-5.875
sg8
F-0.31
sg9
F-0.43
sg10
F9.93
sg11
F-1.3125
sg12
F5.8125
sg13
F0.0625
sg14
F0.8125
sg15
F-0.1875
sa(dp19
g2
I0
sg3
F90.875
sg4
I0
sg5
F-13.5625
sg6
F10.5
sg7
F-6.5625
sg8
F-0.12
sg9
F-0.39
sg10
F10.18
sg11
F-0.125
sg12
F5.8125
sg13
F-0.5625
sg14
F1.25
sg15
F-0.1875
sa(dp20
g2
I0
sg3
F90.8125
sg4
I0
sg5
F-13.875
sg6
F11.6875
sg7
F-6.6875
sg8
F0.04
sg9
F-0.4
sg10
F10.26
sg11
F0.0
sg12
F5.8125
sg13
F-0.625
sg14
F-2.3125
sg15
F-0.1875
sa(dp21
g2
I0
sg3
F90.875
sg4
I0
sg5
F-14.25
sg6
F12.0625
sg7
F-6.6875
sg8
F-0.11
sg9
F-0.04
sg10
F10.16
sg11
F-0.875
sg12
F5.8125
sg13
F0.0625
sg14
F1.3125
sg15
F-0.1875
sa(dp22
g2
I0
sg3
F90.875
sg4
I0
sg5
F-14.25
sg6
F11.6875
sg7
F-6.6875
sg8
F-0.26
sg9
F0.0
sg10
F10.07
sg11
F1.1875
sg12
F5.9375
sg13
F0.5625
sg14
F-0.0625
sg15
F-0.25
sa(dp23
g2
I0
sg3
F90.8125
sg4
I0
sg5
F-13.75
sg6
F12.0625
sg7
F-7.5
sg8
F0.43
sg9
F-0.59
sg10
F10.55
sg11
F-0.6875
sg12
F5.9375
sg13
F-3.25
sg14
F0.5
sg15
F-0.25
sa(dp24
g2
I0
sg3
F90.8125
sg4
I0
sg5
F-13.75
sg6
F12.25
sg7
F-6.25
sg8
F-1.68
sg9
F-0.65
sg10
F9.06
sg11
F1.0625
sg12
F5.75
sg13
F-2.125
sg14
F0.0
sg15
F-0.125
sa(dp25
g2
I0
sg3
F88.5625
sg4
I0
sg5
F-14.1875
sg6
F12.25
sg7
F-6.6875
sg8
F-0.94
sg9
F-0.71
sg10
F10.97
sg11
F-5.3125
sg12
F5.0625
sg13
F-32.1875
sg14
F20.125
sg15
F-0.25
sa(dp26
g2
I0
sg3
F86.8125
sg4
I0
sg5
F-14.25
sg6
F13.75
sg7
F-7.25
sg8
F-0.88
sg9
F0.21
sg10
F10.34
sg11
F-16.6875
sg12
F4.1875
sg13
F-16.875
sg14
F5.875
sg15
F-1.3125
sa(dp27
g2
I0
sg3
F85.8125
sg4
I0
sg5
F-16.0
sg6
F14.375
sg7
F-7.75
sg8
F-0.69
sg9
F-0.25
sg10
F10.89
sg11
F0.1875
sg12
F5.75
sg13
F-5.75
sg14
F-20.6875
sg15
F-1.75
sa(dp28
g2
I0
sg3
F85.6875
sg4
I0
sg5
F-18.0625
sg6
F15.375
sg7
F-4.6875
sg8
F-0.49
sg9
F-0.45
sg10
F10.52
sg11
F4.0
sg12
F6.6875
sg13
F-0.5
sg14
F-4.25
sg15
F-1.5
sa(dp29
g2
I0
sg3
F85.0625
sg4
I0
sg5
F-19.375
sg6
F17.5625
sg7
F-2.375
sg8
F-0.32
sg9
F0.6
sg10
F10.06
sg11
F14.5
sg12
F5.75
sg13
F-15.25
sg14
F0.75
sg15
F-0.625
sa(dp30
g2
I0
sg3
F84.3125
sg4
I0
sg5
F-20.6875
sg6
F20.1875
sg7
F2.5
sg8
F0.62
sg9
F-0.37
sg10
F10.6
sg11
F9.6875
sg12
F5.375
sg13
F5.375
sg14
F0.625
sg15
F0.0625
sa(dp31
g2
I0
sg3
F86.25
sg4
I0
sg5
F-18.1875
sg6
F25.25
sg7
F13.0625
sg8
F0.66
sg9
F-0.05
sg10
F9.64
sg11
F6.25
sg12
F3.875
sg13
F23.75
sg14
F12.0625
sg15
F0.625
sa(dp32
g2
I0
sg3
F87.3125
sg4
I0
sg5
F-17.875
sg6
F27.875
sg7
F17.1875
sg8
F0.67
sg9
F-0.01
sg10
F9.85
sg11
F15.375
sg12
F2.0
sg13
F11.3125
sg14
F17.25
sg15
F1.375
sa(dp33
g2
I0
sg3
F87.8125
sg4
I0
sg5
F-16.1875
sg6
F36.0
sg7
F21.0625
sg8
F0.86
sg9
F-0.31
sg10
F9.84
sg11
F2.5
sg12
F359.875
sg13
F5.8125
sg14
F22.625
sg15
F1.875
sa(dp34
g2
I0
sg3
F87.4375
sg4
I0
sg5
F-14.25
sg6
F40.5625
sg7
F21.0625
sg8
F0.84
sg9
F0.05
sg10
F9.79
sg11
F-3.0
sg12
F357.8125
sg13
F-2.4375
sg14
F30.4375
sg15
F1.3125
sa(dp35
g2
I0
sg3
F87.625
sg4
I0
sg5
F-12.6875
sg6
F51.75
sg7
F20.0625
sg8
F0.91
sg9
F0.25
sg10
F9.75
sg11
F-4.25
sg12
F357.0625
sg13
F9.75
sg14
F4.9375
sg15
F0.875
sa(dp36
g2
I0
sg3
F88.375
sg4
I0
sg5
F-11.75
sg6
F63.6875
sg7
F15.5
sg8
F0.68
sg9
F0.15
sg10
F9.92
sg11
F-3.1875
sg12
F357.1875
sg13
F11.75
sg14
F6.625
sg15
F0.5625
sa(dp37
g2
I0
sg3
F88.5
sg4
I0
sg5
F-10.75
sg6
F68.5
sg7
F12.75
sg8
F0.69
sg9
F-0.49
sg10
F10.45
sg11
F-6.0625
sg12
F357.3125
sg13
F-7.6875
sg14
F-0.375
sg15
F0.1875
sa(dp38
g2
I0
sg3
F88.0
sg4
I0
sg5
F-11.375
sg6
F74.25
sg7
F10.6875
sg8
F0.68
sg9
F-0.03
sg10
F10.12
sg11
F0.625
sg12
F356.5625
sg13
F-3.375
sg14
F15.75
sg15
F-0.0625
sa(dp39
g2
I0
sg3
F87.8125
sg4
I0
sg5
F-10.75
sg6
F78.25
sg7
F10.5
sg8
F0.73
sg9
F-0.68
sg10
F10.29
sg11
F-8.375
sg12
F356.25
sg13
F-0.1875
sg14
F6.25
sg15
F-0.4375
sa(dp40
g2
I0
sg3
F88.5
sg4
I0
sg5
F-10.0
sg6
F81.25
sg7
F11.5
sg8
F0.67
sg9
F0.05
sg10
F9.64
sg11
F-1.1875
sg12
F355.5
sg13
F11.9375
sg14
F9.875
sg15
F-0.625
sa(dp41
g2
I0
sg3
F89.5625
sg4
I0
sg5
F-7.875
sg6
F83.5625
sg7
F10.0625
sg8
F1.19
sg9
F0.0
sg10
F9.74
sg11
F1.875
sg12
F354.5
sg13
F10.6875
sg14
F18.1875
sg15
F-0.8125
sa(dp42
g2
I0
sg3
F89.125
sg4
I0
sg5
F-6.5
sg6
F85.375
sg7
F12.875
sg8
F1.05
sg9
F-0.37
sg10
F10.07
sg11
F3.375
sg12
F353.0625
sg13
F-3.6875
sg14
F23.4375
sg15
F-0.875
sa(dp43
g2
I0
sg3
F88.5
sg4
I0
sg5
F-7.375
sg6
F86.25
sg7
F13.6875
sg8
F1.02
sg9
F0.05
sg10
F10.44
sg11
F-5.875
sg12
F351.375
sg13
F-9.6875
sg14
F16.75
sg15
F-0.9375
sa(dp44
g2
I0
sg3
F87.625
sg4
I0
sg5
F-5.5
sg6
F86.75
sg7
F14.875
sg8
F0.4
sg9
F0.18
sg10
F10.4
sg11
F-1.5
sg12
F351.5
sg13
F-4.875
sg14
F0.4375
sg15
F-1.5
sa(dp45
g2
I0
sg3
F87.6875
sg4
I0
sg5
F-5.75
sg6
F86.5625
sg7
F13.0625
sg8
F0.18
sg9
F-0.06
sg10
F10.33
sg11
F4.5
sg12
F351.9375
sg13
F7.0
sg14
F-12.0
sg15
F-1.25
sa(dp46
g2
I0
sg3
F88.3125
sg4
I0
sg5
F-5.375
sg6
F86.875
sg7
F12.75
sg8
F0.07
sg9
F0.02
sg10
F10.25
sg11
F6.75
sg12
F352.125
sg13
F5.875
sg14
F-9.125
sg15
F-0.625
sa(dp47
g2
I0
sg3
F88.4375
sg4
I0
sg5
F-6.1875
sg6
F86.6875
sg7
F11.6875
sg8
F0.31
sg9
F0.51
sg10
F10.27
sg11
F-1.9375
sg12
F352.125
sg13
F-1.875
sg14
F4.375
sg15
F-0.625
sa(dp48
g2
I0
sg3
F88.4375
sg4
I0
sg5
F-5.75
sg6
F88.1875
sg7
F11.5
sg8
F0.0
sg9
F0.56
sg10
F10.61
sg11
F-7.9375
sg12
F352.375
sg13
F1.0625
sg14
F-4.75
sg15
F-0.875
sa(dp49
g2
I0
sg3
F88.75
sg4
I0
sg5
F-6.1875
sg6
F87.6875
sg7
F11.0625
sg8
F0.18
sg9
F0.42
sg10
F10.86
sg11
F-6.875
sg12
F353.625
sg13
F3.1875
sg14
F-15.125
sg15
F-1.3125
sa(dp50
g2
I0
sg3
F90.0625
sg4
I0
sg5
F-7.375
sg6
F88.75
sg7
F10.6875
sg8
F-0.07
sg9
F0.64
sg10
F9.45
sg11
F-5.625
sg12
F355.0
sg13
F24.125
sg14
F-9.4375
sg15
F-1.625
sa(dp51
g2
I0
sg3
F90.875
sg4
I0
sg5
F-9.0
sg6
F88.75
sg7
F10.5625
sg8
F0.22
sg9
F0.2
sg10
F10.77
sg11
F-14.875
sg12
F356.3125
sg13
F7.75
sg14
F-10.5625
sg15
F-2.375
sa(dp52
g2
I0
sg3
F91.0625
sg4
I0
sg5
F-11.0625
sg6
F90.0
sg7
F8.6875
sg8
F-0.36
sg9
F0.9
sg10
F9.97
sg11
F20.0625
sg12
F356.75
sg13
F-3.875
sg14
F-13.75
sg15
F-1.875
sa(dp53
g2
I0
sg3
F90.0
sg4
I0
sg5
F-14.5625
sg6
F88.375
sg7
F7.875
sg8
F-0.16
sg9
F0.22
sg10
F10.34
sg11
F14.6875
sg12
F356.5
sg13
F-11.875
sg14
F-2.125
sg15
F-0.75
sa(dp54
g2
I0
sg3
F88.375
sg4
I0
sg5
F-22.375
sg6
F87.375
sg7
F6.0
sg8
F0.51
sg9
F0.88
sg10
F10.07
sg11
F-6.625
sg12
F355.875
sg13
F-22.125
sg14
F7.5625
sg15
F-0.4375
sa(dp55
g2
I0
sg3
F86.9375
sg4
I0
sg5
F-28.25
sg6
F88.0
sg7
F2.5625
sg8
F0.24
sg9
F0.74
sg10
F9.84
sg11
F-11.4375
sg12
F356.375
sg13
F-20.4375
sg14
F-3.5
sg15
F-1.1875
sa(dp56
g2
I0
sg3
F86.6875
sg4
I0
sg5
F-32.0
sg6
F87.5
sg7
F2.875
sg8
F0.38
sg9
F0.11
sg10
F10.25
sg11
F7.4375
sg12
F357.25
sg13
F17.0625
sg14
F-7.5625
sg15
F-1.4375
sa(dp57
g2
I0
sg3
F88.4375
sg4
I0
sg5
F-39.5625
sg6
F86.375
sg7
F7.6875
sg8
F-0.05
sg9
F-1.01
sg10
F9.42
sg11
F3.0625
sg12
F357.25
sg13
F11.875
sg14
F-18.25
sg15
F-0.4375
sa(dp58
g2
I0
sg3
F88.625
sg4
I0
sg5
F-47.0
sg6
F84.25
sg7
F7.75
sg8
F-0.34
sg9
F-1.08
sg10
F9.61
sg11
F-8.75
sg12
F358.0625
sg13
F-9.5
sg14
F10.375
sg15
F-1.1875
sa(dp59
g2
I0
sg3
F87.0
sg4
I0
sg5
F-50.25
sg6
F83.1875
sg7
F5.25
sg8
F1.0
sg9
F-0.44
sg10
F11.77
sg11
F18.6875
sg12
F355.875
sg13
F-24.0
sg14
F33.9375
sg15
F-1.0
sa(dp60
g2
I0
sg3
F88.25
sg4
I0
sg5
F-56.5625
sg6
F78.75
sg7
F4.875
sg8
F0.78
sg9
F-2.09
sg10
F12.02
sg11
F-4.0
sg12
F353.9375
sg13
F33.75
sg14
F12.9375
sg15
F-0.4375
sa(dp61
g2
I0
sg3
F92.75
sg4
I0
sg5
F-60.875
sg6
F73.6875
sg7
F14.25
sg8
F-0.39
sg9
F-1.34
sg10
F9.56
sg11
F3.125
sg12
F353.125
sg13
F59.375
sg14
F-4.0625
sg15
F0.0
sa(dp62
g2
I0
sg3
F95.375
sg4
I0
sg5
F-61.0
sg6
F72.875
sg7
F16.1875
sg8
F0.16
sg9
F0.53
sg10
F10.44
sg11
F29.0625
sg12
F351.5625
sg13
F18.5
sg14
F-21.1875
sg15
F1.625
sa(dp63
g2
I0
sg3
F95.9375
sg4
I0
sg5
F-59.5
sg6
F67.75
sg7
F15.875
sg8
F-2.33
sg9
F0.11
sg10
F7.68
sg11
F37.125
sg12
F350.9375
sg13
F-14.9375
sg14
F6.875
sg15
F3.25
sa(dp64
g2
I0
sg3
F91.0625
sg4
I0
sg5
F-63.875
sg6
F62.1875
sg7
F9.1875
sg8
F-1.93
sg9
F0.75
sg10
F9.15
sg11
F9.4375
sg12
F347.5625
sg13
F-69.0
sg14
F30.3125
sg15
F5.25
sa(dp65
g2
I0
sg3
F88.25
sg4
I0
sg5
F-69.0
sg6
F59.25
sg7
F4.1875
sg8
F-0.36
sg9
F1.41
sg10
F9.09
sg11
F10.375
sg12
F345.9375
sg13
F9.0
sg14
F-23.125
sg15
F6.0
sa(dp66
g2
I0
sg3
F89.625
sg4
I0
sg5
F-77.6875
sg6
F55.25
sg7
F4.6875
sg8
F0.3
sg9
F0.25
sg10
F8.29
sg11
F-25.0
sg12
F349.4375
sg13
F42.3125
sg14
F-12.75
sg15
F4.625
sa(dp67
g2
I0
sg3
F89.75
sg4
I0
sg5
F-81.875
sg6
F57.5625
sg7
F6.0625
sg8
F1.23
sg9
F-2.54
sg10
F11.07
sg11
F-5.0
sg12
F352.3125
sg13
F-23.1875
sg14
F-6.125
sg15
F2.9375
sa(dp68
g2
I0
sg3
F87.4375
sg4
I0
sg5
F-84.0
sg6
F58.0625
sg7
F4.5
sg8
F0.5
sg9
F1.16
sg10
F12.16
sg11
F-27.3125
sg12
F352.9375
sg13
F-38.125
sg14
F14.0
sg15
F0.875
sa(dp69
g2
I0
sg3
F88.25
sg4
I0
sg5
F-87.0
sg6
F59.25
sg7
F1.1875
sg8
F-0.84
sg9
F0.44
sg10
F8.75
sg11
F-9.4375
sg12
F353.25
sg13
F31.875
sg14
F57.3125
sg15
F0.125
sa(dp70
g2
I0
sg3
F88.9375
sg4
I0
sg5
F-85.1875
sg6
F55.75
sg7
F8.25
sg8
F3.07
sg9
F-1.24
sg10
F12.32
sg11
F-9.8125
sg12
F354.1875
sg13
F13.625
sg14
F4.375
sg15
F-1.0
sa(dp71
g2
I0
sg3
F90.5625
sg4
I0
sg5
F-83.5625
sg6
F55.6875
sg7
F9.0625
sg8
F-2.6
sg9
F-0.21
sg10
F9.55
sg11
F0.375
sg12
F354.3125
sg13
F2.8125
sg14
F10.125
sg15
F-1.0625
sa(dp72
g2
I0
sg3
F90.125
sg4
I0
sg5
F-81.875
sg6
F53.25
sg7
F9.25
sg8
F-0.14
sg9
F-0.5
sg10
F10.19
sg11
F2.5
sg12
F353.75
sg13
F0.9375
sg14
F-1.0
sg15
F-1.0625
sa(dp73
g2
I0
sg3
F90.1875
sg4
I0
sg5
F-82.0625
sg6
F53.875
sg7
F9.5
sg8
F0.22
sg9
F-0.3
sg10
F10.13
sg11
F1.6875
sg12
F353.625
sg13
F0.6875
sg14
F-2.125
sg15
F-1.0
sa(dp74
g2
I0
sg3
F90.125
sg4
I0
sg5
F-81.375
sg6
F51.5
sg7
F9.875
sg8
F0.68
sg9
F0.02
sg10
F10.38
sg11
F-1.5625
sg12
F353.625
sg13
F1.5
sg14
F0.6875
sg15
F-1.125
sa(dp75
g2
I0
sg3
F90.25
sg4
I0
sg5
F-80.0625
sg6
F52.6875
sg7
F10.25
sg8
F-0.18
sg9
F-0.57
sg10
F10.1
sg11
F-2.25
sg12
F353.75
sg13
F1.375
sg14
F0.6875
sg15
F-1.25
sa(dp76
g2
I0
sg3
F90.3125
sg4
I0
sg5
F-80.875
sg6
F52.25
sg7
F9.5
sg8
F-0.53
sg9
F0.53
sg10
F10.03
sg11
F3.375
sg12
F353.625
sg13
F2.4375
sg14
F-6.4375
sg15
F-1.125
sa(dp77
g2
I0
sg3
F90.3125
sg4
I0
sg5
F-81.0625
sg6
F52.1875
sg7
F9.5
sg8
F-0.07
sg9
F-0.35
sg10
F9.87
sg11
F-1.6875
sg12
F353.9375
sg13
F0.4375
sg14
F-1.125
sg15
F-1.1875
sa(dp78
g2
I0
sg3
F90.3125
sg4
I0
sg5
F-81.0625
sg6
F52.5
sg7
F8.6875
sg8
F-0.05
sg9
F-0.27
sg10
F10.27
sg11
F-0.125
sg12
F353.9375
sg13
F0.3125
sg14
F0.5
sg15
F-1.1875
sa(dp79
g2
I0
sg3
F90.3125
sg4
I0
sg5
F-80.375
sg6
F52.5
sg7
F9.5
sg8
F-0.14
sg9
F-0.23
sg10
F10.12
sg11
F0.375
sg12
F353.9375
sg13
F0.0
sg14
F-0.1875
sg15
F-1.1875
sa(dp80
g2
I0
sg3
F90.375
sg4
I0
sg5
F-80.75
sg6
F52.875
sg7
F8.6875
sg8
F-0.16
sg9
F-0.25
sg10
F10.17
sg11
F0.0
sg12
F353.9375
sg13
F-0.0625
sg14
F-0.0625
sg15
F-1.1875
sa(dp81
g2
I0
sg3
F90.375
sg4
I0
sg5
F-80.75
sg6
F52.1875
sg7
F9.875
sg8
F-0.12
sg9
F-0.2
sg10
F10.17
sg11
F0.0625
sg12
F353.9375
sg13
F0.125
sg14
F-0.0625
sg15
F-1.1875
sa(dp82
g2
I0
sg3
F90.375
sg4
I0
sg5
F-81.0625
sg6
F52.1875
sg7
F8.0
sg8
F-0.12
sg9
F-0.23
sg10
F10.16
sg11
F0.0
sg12
F353.9375
sg13
F-0.0625
sg14
F-0.0625
sg15
F-1.1875
sa(dp83
g2
I0
sg3
F90.375
sg4
I0
sg5
F-80.75
sg6
F51.0625
sg7
F9.1875
sg8
F-0.13
sg9
F-0.23
sg10
F10.18
sg11
F0.0625
sg12
F353.9375
sg13
F0.125
sg14
F0.1875
sg15
F-1.1875
sa(dp84
g2
I0
sg3
F90.375
sg4
I0
sg5
F-81.5
sg6
F51.75
sg7
F8.25
sg8
F-0.14
sg9
F-0.23
sg10
F10.15
sg11
F0.0
sg12
F353.9375
sg13
F-0.0625
sg14
F-0.0625
sg15
F-1.1875
sa(dp85
g2
I0
sg3
F90.375
sg4
I0
sg5
F-80.75
sg6
F52.5
sg7
F9.5
sg8
F-0.12
sg9
F-0.22
sg10
F10.14
sg11
F0.0
sg12
F353.9375
sg13
F0.0625
sg14
F0.0625
sg15
F-1.1875
sa(dp86
g2
I0
sg3
F90.375
sg4
I0
sg5
F-80.375
sg6
F52.1875
sg7
F8.6875
sg8
F-0.12
sg9
F-0.24
sg10
F10.15
sg11
F0.0625
sg12
F353.9375
sg13
F-0.0625
sg14
F0.0
sg15
F-1.1875
sa(dp87
g2
I0
sg3
F90.375
sg4
I0
sg5
F-80.75
sg6
F52.5
sg7
F8.6875
sg8
F-0.14
sg9
F-0.21
sg10
F10.18
sg11
F-0.0625
sg12
F353.9375
sg13
F0.0625
sg14
F-0.0625
sg15
F-1.1875
sa(dp88
g2
I0
sg3
F90.375
sg4
I0
sg5
F-80.75
sg6
F52.875
sg7
F9.5
sg8
F-0.13
sg9
F-0.22
sg10
F10.12
sg11
F0.125
sg12
F353.9375
sg13
F0.0
sg14
F-0.125
sg15
F-1.1875
sa(dp89
g2
I0
sg3
F90.4375
sg4
I0
sg5
F-81.0625
sg6
F52.5
sg7
F8.25
sg8
F-0.13
sg9
F-0.22
sg10
F10.16
sg11
F0.0625
sg12
F353.9375
sg13
F0.0625
sg14
F0.0625
sg15
F-1.1875
sa(dp90
g2
I0
sg3
F90.4375
sg4
I0
sg5
F-80.375
sg6
F52.5
sg7
F9.5
sg8
F-0.15
sg9
F-0.21
sg10
F10.18
sg11
F-0.0625
sg12
F353.9375
sg13
F0.125
sg14
F0.25
sg15
F-1.1875
sa(dp91
g2
I0
sg3
F90.4375
sg4
I0
sg5
F-80.75
sg6
F52.1875
sg7
F9.5
sg8
F-0.14
sg9
F-0.22
sg10
F10.16
sg11
F0.0
sg12
F353.9375
sg13
F0.0
sg14
F-0.0625
sg15
F-1.1875
sa(dp92
g2
I0
sg3
F90.4375
sg4
I0
sg5
F-81.0625
sg6
F51.75
sg7
F9.5
sg8
F-0.13
sg9
F-0.22
sg10
F10.18
sg11
F0.0
sg12
F353.9375
sg13
F-0.0625
sg14
F0.125
sg15
F-1.1875
sa(dp93
g2
I0
sg3
F90.4375
sg4
I0
sg5
F-80.75
sg6
F52.875
sg7
F8.6875
sg8
F-0.12
sg9
F-0.22
sg10
F10.19
sg11
F0.0625
sg12
F353.9375
sg13
F0.0
sg14
F-0.125
sg15
F-1.1875
sa(dp94
g2
I0
sg3
F90.4375
sg4
I0
sg5
F-81.5
sg6
F52.875
sg7
F9.5
sg8
F-0.13
sg9
F-0.22
sg10
F10.17
sg11
F0.0625
sg12
F353.9375
sg13
F0.0625
sg14
F0.0
sg15
F-1.1875
sa(dp95
g2
I0
sg3
F90.4375
sg4
I0
sg5
F-80.0
sg6
F52.875
sg7
F9.1875
sg8
F-0.15
sg9
F-0.22
sg10
F10.17
sg11
F-0.0625
sg12
F353.9375
sg13
F0.0625
sg14
F-0.25
sg15
F-1.1875
sa(dp96
g2
I0
sg3
F90.4375
sg4
I0
sg5
F-80.75
sg6
F51.75
sg7
F8.6875
sg8
F-0.14
sg9
F-0.21
sg10
F10.15
sg11
F0.0625
sg12
F353.9375
sg13
F0.0625
sg14
F-0.0625
sg15
F-1.1875
sa(dp97
g2
I0
sg3
F90.4375
sg4
I0
sg5
F-80.75
sg6
F52.875
sg7
F9.1875
sg8
F-0.16
sg9
F-0.21
sg10
F10.15
sg11
F0.125
sg12
F353.9375
sg13
F0.1875
sg14
F0.0
sg15
F-1.1875
sa(dp98
g2
I0
sg3
F90.4375
sg4
I0
sg5
F-81.0625
sg6
F52.1875
sg7
F7.5625
sg8
F-0.14
sg9
F-0.24
sg10
F10.16
sg11
F0.0625
sg12
F353.9375
sg13
F0.0
sg14
F-0.0625
sg15
F-1.1875
sa(dp99
g2
I0
sg3
F90.4375
sg4
I0
sg5
F-80.75
sg6
F52.1875
sg7
F9.5
sg8
F-0.16
sg9
F-0.23
sg10
F10.19
sg11
F0.0625
sg12
F353.9375
sg13
F0.0625
sg14
F0.0625
sg15
F-1.1875
sa(dp100
g2
I0
sg3
F90.4375
sg4
I0
sg5
F-80.375
sg6
F52.5
sg7
F9.5
sg8
F-0.16
sg9
F-0.22
sg10
F10.15
sg11
F0.0625
sg12
F353.9375
sg13
F0.0
sg14
F-0.0625
sg15
F-1.1875
sa(dp101
g2
I0
sg3
F90.4375
sg4
I0
sg5
F-80.75
sg6
F52.875
sg7
F8.6875
sg8
F-0.17
sg9
F-0.22
sg10
F10.16
sg11
F0.0
sg12
F353.9375
sg13
F-0.1875
sg14
F0.0625
sg15
F-1.1875
sa(dp102
g2
I0
sg3
F90.4375
sg4
I0
sg5
F-80.75
sg6
F51.75
sg7
F10.25
sg8
F-0.14
sg9
F-0.21
sg10
F10.16
sg11
F0.0
sg12
F353.9375
sg13
F-0.125
sg14
F-0.125
sg15
F-1.1875
sa(dp103
g2
I0
sg3
F90.4375
sg4
I0
sg5
F-81.5
sg6
F53.25
sg7
F9.5
sg8
F-0.13
sg9
F-0.22
sg10
F10.15
sg11
F0.0625
sg12
F353.9375
sg13
F0.0
sg14
F0.0
sg15
F-1.1875
sa(dp104
g2
I0
sg3
F90.4375
sg4
I0
sg5
F-81.0625
sg6
F52.875
sg7
F9.1875
sg8
F-0.11
sg9
F-0.22
sg10
F10.17
sg11
F0.0
sg12
F353.9375
sg13
F0.0
sg14
F-0.1875
sg15
F-1.1875
sa(dp105
g2
I0
sg3
F90.4375
sg4
I0
sg5
F-80.375
sg6
F52.5
sg7
F9.1875
sg8
F-0.11
sg9
F-0.23
sg10
F10.18
sg11
F0.125
sg12
F353.9375
sg13
F-0.125
sg14
F-0.0625
sg15
F-1.1875
sa(dp106
g2
I0
sg3
F90.4375
sg4
I0
sg5
F-80.375
sg6
F52.5
sg7
F8.25
sg8
F-0.14
sg9
F-0.22
sg10
F10.16
sg11
F0.0
sg12
F353.9375
sg13
F-0.125
sg14
F0.125
sg15
F-1.1875
sa(dp107
g2
I0
sg3
F90.4375
sg4
I0
sg5
F-80.75
sg6
F52.875
sg7
F8.25
sg8
F-0.15
sg9
F-0.22
sg10
F10.17
sg11
F0.0625
sg12
F353.9375
sg13
F0.0625
sg14
F0.0
sg15
F-1.1875
sa(dp108
g2
I0
sg3
F90.4375
sg4
I0
sg5
F-81.0625
sg6
F52.5
sg7
F8.0
sg8
F-0.16
sg9
F-0.23
sg10
F10.16
sg11
F-0.0625
sg12
F353.9375
sg13
F0.0
sg14
F-0.125
sg15
F-1.1875
sa(dp109
g2
I0
sg3
F90.4375
sg4
I0
sg5
F-80.375
sg6
F52.5
sg7
F8.25
sg8
F-0.12
sg9
F-0.23
sg10
F10.15
sg11
F-0.0625
sg12
F353.9375
sg13
F0.0625
sg14
F-0.0625
sg15
F-1.1875
sa(dp110
g2
I0
sg3
F90.4375
sg4
I0
sg5
F-80.375
sg6
F52.1875
sg7
F9.1875
sg8
F-0.17
sg9
F-0.22
sg10
F10.17
sg11
F0.0625
sg12
F353.9375
sg13
F0.0625
sg14
F0.0625
sg15
F-1.1875
sa(dp111
g2
I0
sg3
F90.4375
sg4
I0
sg5
F-80.375
sg6
F52.5
sg7
F9.5
sg8
F-0.16
sg9
F-0.22
sg10
F10.18
sg11
F0.125
sg12
F353.9375
sg13
F0.125
sg14
F0.0
sg15
F-1.1875
sa(dp112
g2
I0
sg3
F90.4375
sg4
I0
sg5
F-80.0
sg6
F52.1875
sg7
F9.1875
sg8
F-0.12
sg9
F-0.21
sg10
F10.19
sg11
F-0.0625
sg12
F353.9375
sg13
F0.0625
sg14
F-0.0625
sg15
F-1.1875
sa(dp113
g2
I0
sg3
F90.4375
sg4
I0
sg5
F-80.0
sg6
F53.25
sg7
F9.5
sg8
F-0.15
sg9
F-0.2
sg10
F10.16
sg11
F-0.0625
sg12
F353.9375
sg13
F-0.125
sg14
F-0.0625
sg15
F-1.1875
sa(dp114
g2
I0
sg3
F90.4375
sg4
I0
sg5
F-80.375
sg6
F53.25
sg7
F9.5
sg8
F-0.14
sg9
F-0.22
sg10
F10.18
sg11
F0.0625
sg12
F353.9375
sg13
F0.0625
sg14
F0.0625
sg15
F-1.1875
sa.