(lp0
(dp1
S'left_enc'
p2
I0
sS'euler_z'
p3
F97.4375
sS'right_enc'
p4
I0
sS'mag_y'
p5
F-15.75
sS'mag_x'
p6
F-5.5
sS'mag_z'
p7
F24.1875
sS'accel_z'
p8
F-1.21
sS'accel_x'
p9
F-0.31
sS'accel_y'
p10
F9.23
sS'gyro_z'
p11
F-0.25
sS'euler_x'
p12
F0.0
sS'gyro_x'
p13
F0.125
sS'gyro_y'
p14
F-0.0625
sS'euler_y'
p15
F-1.875
sa(dp16
g2
I0
sg3
F97.4375
sg4
I0
sg5
F-16.1875
sg6
F-6.1875
sg7
F26.0625
sg8
F-1.2
sg9
F-0.3
sg10
F9.21
sg11
F-0.125
sg12
F359.9375
sg13
F0.0
sg14
F-0.25
sg15
F-1.875
sa(dp17
g2
I0
sg3
F97.4375
sg4
I0
sg5
F-16.1875
sg6
F-5.75
sg7
F26.0625
sg8
F-1.18
sg9
F-0.31
sg10
F9.18
sg11
F0.0
sg12
F359.9375
sg13
F0.0625
sg14
F-0.0625
sg15
F-1.875
sa(dp18
g2
I0
sg3
F97.4375
sg4
I0
sg5
F-15.75
sg6
F-5.5
sg7
F25.75
sg8
F-1.2
sg9
F-0.31
sg10
F9.21
sg11
F-0.125
sg12
F359.9375
sg13
F0.0625
sg14
F-0.1875
sg15
F-1.875
sa(dp19
g2
I0
sg3
F97.4375
sg4
I0
sg5
F-15.375
sg6
F-5.0625
sg7
F26.875
sg8
F-1.2
sg9
F-0.31
sg10
F9.19
sg11
F-0.0625
sg12
F359.9375
sg13
F-0.0625
sg14
F-0.3125
sg15
F-1.875
sa(dp20
g2
I0
sg3
F97.4375
sg4
I0
sg5
F-15.375
sg6
F-5.5
sg7
F25.6875
sg8
F-1.2
sg9
F-0.3
sg10
F9.2
sg11
F-0.125
sg12
F359.9375
sg13
F0.0625
sg14
F0.0
sg15
F-1.875
sa(dp21
g2
I0
sg3
F97.4375
sg4
I0
sg5
F-16.1875
sg6
F-5.0625
sg7
F26.0625
sg8
F-1.17
sg9
F-0.31
sg10
F9.21
sg11
F0.125
sg12
F359.9375
sg13
F0.0625
sg14
F-0.125
sg15
F-1.875
sa(dp22
g2
I0
sg3
F97.4375
sg4
I0
sg5
F-15.0625
sg6
F-5.0625
sg7
F26.875
sg8
F-1.2
sg9
F-0.31
sg10
F9.19
sg11
F-0.125
sg12
F359.9375
sg13
F0.0
sg14
F-0.125
sg15
F-1.875
sa(dp23
g2
I0
sg3
F97.4375
sg4
I0
sg5
F-15.75
sg6
F-5.75
sg7
F26.875
sg8
F-1.16
sg9
F-0.31
sg10
F9.18
sg11
F0.0625
sg12
F359.9375
sg13
F0.0625
sg14
F0.0
sg15
F-1.875
sa(dp24
g2
I0
sg3
F97.4375
sg4
I0
sg5
F-15.0625
sg6
F-5.0625
sg7
F25.75
sg8
F-1.21
sg9
F-0.3
sg10
F9.2
sg11
F-0.125
sg12
F359.9375
sg13
F0.25
sg14
F-0.125
sg15
F-1.875
sa(dp25
g2
I0
sg3
F97.4375
sg4
I0
sg5
F-15.375
sg6
F-5.5
sg7
F26.875
sg8
F-1.17
sg9
F-0.31
sg10
F9.21
sg11
F-0.0625
sg12
F359.9375
sg13
F0.1875
sg14
F0.1875
sg15
F-1.875
sa(dp26
g2
I0
sg3
F97.4375
sg4
I0
sg5
F-16.1875
sg6
F-4.375
sg7
F26.0625
sg8
F-1.19
sg9
F-0.31
sg10
F9.18
sg11
F-0.0625
sg12
F359.9375
sg13
F0.0625
sg14
F-0.125
sg15
F-1.875
sa(dp27
g2
I0
sg3
F97.4375
sg4
I0
sg5
F-15.75
sg6
F-5.75
sg7
F25.75
sg8
F-1.19
sg9
F-0.29
sg10
F9.18
sg11
F-0.0625
sg12
F359.9375
sg13
F-0.0625
sg14
F0.0
sg15
F-1.875
sa(dp28
g2
I0
sg3
F97.4375
sg4
I0
sg5
F-15.375
sg6
F-5.5
sg7
F26.5
sg8
F-1.2
sg9
F-0.29
sg10
F9.19
sg11
F0.0
sg12
F359.9375
sg13
F0.0625
sg14
F0.0625
sg15
F-1.875
sa(dp29
g2
I0
sg3
F97.4375
sg4
I0
sg5
F-15.75
sg6
F-5.75
sg7
F26.0625
sg8
F-1.17
sg9
F-0.32
sg10
F9.21
sg11
F0.0
sg12
F359.9375
sg13
F-0.125
sg14
F-0.125
sg15
F-1.875
sa(dp30
g2
I0
sg3
F97.4375
sg4
I0
sg5
F-15.75
sg6
F-5.5
sg7
F26.5
sg8
F-1.21
sg9
F-0.29
sg10
F9.17
sg11
F-0.0625
sg12
F359.9375
sg13
F-0.1875
sg14
F0.25
sg15
F-1.875
sa(dp31
g2
I0
sg3
F97.4375
sg4
I0
sg5
F-15.75
sg6
F-6.1875
sg7
F25.75
sg8
F-1.18
sg9
F-0.3
sg10
F9.2
sg11
F-0.0625
sg12
F359.9375
sg13
F-0.1875
sg14
F0.125
sg15
F-1.875
sa(dp32
g2
I0
sg3
F97.4375
sg4
I0
sg5
F-16.1875
sg6
F-5.5
sg7
F26.0625
sg8
F-1.2
sg9
F-0.31
sg10
F9.2
sg11
F0.0
sg12
F359.9375
sg13
F-0.0625
sg14
F-0.125
sg15
F-1.875
sa(dp33
g2
I0
sg3
F97.4375
sg4
I0
sg5
F-15.75
sg6
F-5.5
sg7
F26.875
sg8
F-1.19
sg9
F-0.31
sg10
F9.22
sg11
F-0.0625
sg12
F359.9375
sg13
F-0.125
sg14
F0.0
sg15
F-1.875
sa(dp34
g2
I0
sg3
F97.4375
sg4
I0
sg5
F-15.75
sg6
F-5.0625
sg7
F25.75
sg8
F-1.2
sg9
F-0.33
sg10
F9.19
sg11
F0.0
sg12
F359.9375
sg13
F-0.0625
sg14
F0.0625
sg15
F-1.875
sa(dp35
g2
I0
sg3
F97.4375
sg4
I0
sg5
F-15.375
sg6
F-5.75
sg7
F26.5625
sg8
F-1.17
sg9
F-0.29
sg10
F9.2
sg11
F-0.1875
sg12
F359.9375
sg13
F0.0625
sg14
F-0.125
sg15
F-1.875
sa(dp36
g2
I5
sg3
F97.4375
sg4
I5
sg5
F-16.1875
sg6
F-5.5
sg7
F26.0625
sg8
F-2.6
sg9
F0.06
sg10
F10.05
sg11
F-0.1875
sg12
F0.0
sg13
F1.9375
sg14
F0.125
sg15
F-1.875
sa(dp37
g2
I22
sg3
F97.5
sg4
I21
sg5
F-16.1875
sg6
F-4.75
sg7
F25.75
sg8
F-1.96
sg9
F-0.27
sg10
F9.03
sg11
F0.3125
sg12
F0.3125
sg13
F-6.0
sg14
F-8.3125
sg15
F-1.75
sa(dp38
g2
I47
sg3
F97.3125
sg4
I46
sg5
F-9.375
sg6
F-4.25
sg7
F16.1875
sg8
F-1.85
sg9
F-0.35
sg10
F11.09
sg11
F-2.8125
sg12
F0.875
sg13
F-7.8125
sg14
F-0.8125
sg15
F-2.0
sa(dp39
g2
I73
sg3
F97.3125
sg4
I73
sg5
F-9.0
sg6
F-3.0
sg7
F16.0
sg8
F-1.22
sg9
F-1.13
sg10
F10.15
sg11
F-0.4375
sg12
F0.75
sg13
F1.625
sg14
F-1.875
sg15
F-1.9375
sa(dp40
g2
I97
sg3
F97.5
sg4
I97
sg5
F-10.25
sg6
F-4.0625
sg7
F15.5
sg8
F-0.79
sg9
F-0.16
sg10
F8.48
sg11
F3.9375
sg12
F0.4375
sg13
F6.375
sg14
F2.4375
sg15
F-1.75
sa(dp41
g2
I120
sg3
F97.5
sg4
I120
sg5
F-9.75
sg6
F-4.5
sg7
F15.5
sg8
F-1.1
sg9
F-0.16
sg10
F8.93
sg11
F2.375
sg12
F0.375
sg13
F-1.4375
sg14
F0.5
sg15
F-1.6875
sa(dp42
g2
I144
sg3
F97.5625
sg4
I144
sg5
F-10.875
sg6
F-4.6875
sg7
F14.75
sg8
F-1.28
sg9
F0.02
sg10
F8.93
sg11
F-1.0625
sg12
F0.25
sg13
F8.75
sg14
F1.6875
sg15
F-1.625
sa(dp43
g2
I166
sg3
F97.6875
sg4
I167
sg5
F-10.1875
sg6
F-5.0
sg7
F15.5
sg8
F-1.63
sg9
F0.56
sg10
F10.37
sg11
F-4.9375
sg12
F0.0
sg13
F-3.125
sg14
F6.5
sg15
F-1.6875
sa(dp44
g2
I190
sg3
F97.4375
sg4
I190
sg5
F-10.5625
sg6
F-4.25
sg7
F16.0
sg8
F-1.6
sg9
F-0.2
sg10
F12.63
sg11
F-0.3125
sg12
F0.0
sg13
F-8.0625
sg14
F0.5625
sg15
F-1.625
sa(dp45
g2
I213
sg3
F97.5
sg4
I213
sg5
F-10.5625
sg6
F-4.5
sg7
F14.875
sg8
F-1.04
sg9
F-0.31
sg10
F9.17
sg11
F5.6875
sg12
F0.125
sg13
F3.25
sg14
F-2.3125
sg15
F-1.6875
sa(dp46
g2
I236
sg3
F97.625
sg4
I236
sg5
F-12.0625
sg6
F-4.875
sg7
F14.5
sg8
F-0.5
sg9
F-0.05
sg10
F5.1
sg11
F2.0
sg12
F0.4375
sg13
F11.6875
sg14
F-4.9375
sg15
F-1.6875
sa(dp47
g2
I261
sg3
F97.5625
sg4
I261
sg5
F-11.25
sg6
F-5.25
sg7
F14.875
sg8
F-0.59
sg9
F-0.2
sg10
F7.01
sg11
F-3.0625
sg12
F0.75
sg13
F-0.0625
sg14
F-0.5
sg15
F-1.75
sa(dp48
g2
I287
sg3
F97.5625
sg4
I286
sg5
F-11.1875
sg6
F-5.1875
sg7
F14.0
sg8
F-1.18
sg9
F0.06
sg10
F8.22
sg11
F-0.3125
sg12
F0.875
sg13
F-3.0625
sg14
F0.4375
sg15
F-1.8125
sa(dp49
g2
I310
sg3
F97.75
sg4
I310
sg5
F-12.0
sg6
F-5.5625
sg7
F14.25
sg8
F-0.99
sg9
F-0.11
sg10
F7.84
sg11
F2.3125
sg12
F1.0
sg13
F4.0625
sg14
F-1.9375
sg15
F-1.8125
sa(dp50
g2
I334
sg3
F97.8125
sg4
I334
sg5
F-11.5625
sg6
F-6.25
sg7
F13.5
sg8
F-0.82
sg9
F-0.2
sg10
F8.86
sg11
F0.0
sg12
F1.125
sg13
F0.875
sg14
F-2.9375
sg15
F-1.75
sa(dp51
g2
I357
sg3
F97.6875
sg4
I356
sg5
F-11.5625
sg6
F-6.1875
sg7
F14.0625
sg8
F-1.07
sg9
F-0.76
sg10
F10.65
sg11
F-3.25
sg12
F1.3125
sg13
F-0.5625
sg14
F-0.375
sg15
F-1.875
sa(dp52
g2
I376
sg3
F97.75
sg4
I380
sg5
F-12.375
sg6
F-6.1875
sg7
F14.0625
sg8
F-0.27
sg9
F-1.55
sg10
F8.07
sg11
F-2.6875
sg12
F1.4375
sg13
F-5.625
sg14
F-1.0
sg15
F-1.8125
sa(dp53
g2
I380
sg3
F97.8125
sg4
I404
sg5
F-12.6875
sg6
F-6.5
sg7
F13.0625
sg8
F-0.99
sg9
F-0.17
sg10
F9.5
sg11
F-6.375
sg12
F358.125
sg13
F5.4375
sg14
F67.375
sg15
F-1.6875
sa(dp54
g2
I380
sg3
F98.0
sg4
I427
sg5
F-12.6875
sg6
F-6.875
sg7
F13.875
sg8
F-0.97
sg9
F0.02
sg10
F9.29
sg11
F-9.25
sg12
F352.1875
sg13
F-0.4375
sg14
F73.125
sg15
F-1.4375
sa(dp55
g2
I380
sg3
F98.0625
sg4
I452
sg5
F-14.0625
sg6
F-8.1875
sg7
F9.6875
sg8
F-1.17
sg9
F-0.37
sg10
F9.82
sg11
F-5.125
sg12
F347.125
sg13
F-2.75
sg14
F58.25
sg15
F-1.375
sa(dp56
g2
I380
sg3
F98.1875
sg4
I475
sg5
F-15.0
sg6
F-11.875
sg7
F8.375
sg8
F-0.91
sg9
F-0.36
sg10
F8.95
sg11
F-5.875
sg12
F342.9375
sg13
F1.1875
sg14
F55.75
sg15
F-1.375
sa(dp57
g2
I380
sg3
F98.1875
sg4
I500
sg5
F-15.5
sg6
F-11.6875
sg7
F5.6875
sg8
F-1.14
sg9
F-0.2
sg10
F9.57
sg11
F-6.5
sg12
F337.9375
sg13
F-0.125
sg14
F66.125
sg15
F-1.1875
sa(dp58
g2
I380
sg3
F98.875
sg4
I524
sg5
F-15.75
sg6
F-14.0
sg7
F1.6875
sg8
F-2.43
sg9
F-0.54
sg10
F15.36
sg11
F-25.0
sg12
F331.625
sg13
F3.625
sg14
F86.6875
sg15
F-1.125
sa(dp59
g2
I380
sg3
F98.625
sg4
I546
sg5
F-16.5
sg6
F-14.6875
sg7
F0.25
sg8
F-1.03
sg9
F-0.49
sg10
F9.62
sg11
F-2.375
sg12
F325.0625
sg13
F-4.5
sg14
F82.5
sg15
F-0.5625
sa(dp60
g2
I380
sg3
F98.5625
sg4
I570
sg5
F-16.5625
sg6
F-14.875
sg7
F-2.5
sg8
F-1.13
sg9
F-0.79
sg10
F9.22
sg11
F-12.625
sg12
F318.75
sg13
F-7.6875
sg14
F75.4375
sg15
F-0.5
sa(dp61
g2
I380
sg3
F98.5
sg4
I591
sg5
F-17.375
sg6
F-13.375
sg7
F-5.75
sg8
F-0.9
sg9
F-0.09
sg10
F9.17
sg11
F-12.375
sg12
F313.4375
sg13
F-0.9375
sg14
F81.1875
sg15
F-0.5625
sa(dp62
g2
I380
sg3
F98.4375
sg4
I599
sg5
F-17.375
sg6
F-13.1875
sg7
F-6.0
sg8
F-0.45
sg9
F0.7
sg10
F9.71
sg11
F-6.6875
sg12
F308.9375
sg13
F-1.25
sg14
F41.0625
sg15
F-0.625
sa(dp63
g2
I380
sg3
F98.375
sg4
I599
sg5
F-17.75
sg6
F-12.1875
sg7
F-6.5625
sg8
F-1.29
sg9
F-1.09
sg10
F9.26
sg11
F0.0625
sg12
F308.125
sg13
F-0.8125
sg14
F-0.5
sg15
F-0.375
sa(dp64
g2
I380
sg3
F98.3125
sg4
I599
sg5
F-17.0625
sg6
F-10.6875
sg7
F-6.6875
sg8
F-1.22
sg9
F-0.15
sg10
F9.24
sg11
F-0.1875
sg12
F308.125
sg13
F0.0
sg14
F0.1875
sg15
F-0.4375
sa(dp65
g2
I380
sg3
F98.3125
sg4
I599
sg5
F-17.0625
sg6
F-12.0625
sg7
F-6.25
sg8
F-1.2
sg9
F-0.33
sg10
F9.23
sg11
F0.125
sg12
F308.25
sg13
F-0.125
sg14
F0.0625
sg15
F-0.5
sa(dp66
g2
I380
sg3
F98.3125
sg4
I599
sg5
F-18.1875
sg6
F-11.375
sg7
F-7.5
sg8
F-1.28
sg9
F-0.28
sg10
F9.19
sg11
F0.125
sg12
F308.3125
sg13
F0.0
sg14
F0.125
sg15
F-0.5625
sa(dp67
g2
I380
sg3
F98.25
sg4
I599
sg5
F-17.375
sg6
F-11.75
sg7
F-7.5
sg8
F-1.26
sg9
F-0.29
sg10
F9.2
sg11
F-0.125
sg12
F308.4375
sg13
F0.125
sg14
F0.0625
sg15
F-0.625
sa(dp68
g2
I380
sg3
F98.25
sg4
I599
sg5
F-17.375
sg6
F-10.6875
sg7
F-7.0625
sg8
F-1.29
sg9
F-0.32
sg10
F9.19
sg11
F-0.0625
sg12
F308.5
sg13
F0.0
sg14
F-0.0625
sg15
F-0.75
sa(dp69
g2
I380
sg3
F98.25
sg4
I599
sg5
F-17.0625
sg6
F-11.375
sg7
F-7.875
sg8
F-1.29
sg9
F-0.33
sg10
F9.19
sg11
F0.0
sg12
F308.5625
sg13
F0.0625
sg14
F0.25
sg15
F-0.8125
sa(dp70
g2
I380
sg3
F98.1875
sg4
I599
sg5
F-17.375
sg6
F-11.0625
sg7
F-6.6875
sg8
F-1.29
sg9
F-0.31
sg10
F9.21
sg11
F0.0
sg12
F308.625
sg13
F0.0
sg14
F-0.125
sg15
F-0.875
sa(dp71
g2
I380
sg3
F98.1875
sg4
I599
sg5
F-17.375
sg6
F-11.0625
sg7
F-7.875
sg8
F-1.3
sg9
F-0.34
sg10
F9.18
sg11
F0.0625
sg12
F308.75
sg13
F-0.125
sg14
F0.125
sg15
F-0.9375
sa(dp72
g2
I380
sg3
F98.1875
sg4
I599
sg5
F-17.75
sg6
F-11.0625
sg7
F-6.6875
sg8
F-1.26
sg9
F-0.32
sg10
F9.19
sg11
F0.0
sg12
F308.8125
sg13
F0.0625
sg14
F-0.125
sg15
F-1.0
sa(dp73
g2
I390
sg3
F98.375
sg4
I609
sg5
F-17.0625
sg6
F-11.375
sg7
F-7.0625
sg8
F-2.84
sg9
F1.19
sg10
F7.98
sg11
F5.0625
sg12
F308.8125
sg13
F7.875
sg14
F-4.5625
sg15
F-0.9375
sa(dp74
g2
I411
sg3
F98.25
sg4
I630
sg5
F-17.5
sg6
F-10.6875
sg7
F-8.1875
sg8
F-2.59
sg9
F0.0
sg10
F8.82
sg11
F9.5625
sg12
F309.625
sg13
F-2.0
sg14
F1.375
sg15
F-0.9375
sa(dp75
g2
I440
sg3
F98.1875
sg4
I660
sg5
F-17.5
sg6
F-10.75
sg7
F-7.0625
sg8
F-1.74
sg9
F0.4
sg10
F7.86
sg11
F-0.5625
sg12
F309.5
sg13
F-8.25
sg14
F-7.1875
sg15
F-0.8125
sa(dp76
g2
I464
sg3
F98.125
sg4
I684
sg5
F-17.875
sg6
F-10.75
sg7
F-6.6875
sg8
F-1.34
sg9
F0.59
sg10
F10.31
sg11
F-1.8125
sg12
F309.4375
sg13
F-3.5625
sg14
F-1.125
sg15
F-0.6875
sa(dp77
g2
I487
sg3
F98.3125
sg4
I706
sg5
F-17.5
sg6
F-11.5
sg7
F-6.375
sg8
F-1.86
sg9
F-0.34
sg10
F9.28
sg11
F-2.375
sg12
F309.4375
sg13
F0.125
sg14
F4.1875
sg15
F-0.6875
sa(dp78
g2
I509
sg3
F98.375
sg4
I728
sg5
F-18.1875
sg6
F-9.5625
sg7
F-6.5
sg8
F-1.21
sg9
F-0.46
sg10
F10.32
sg11
F2.375
sg12
F309.4375
sg13
F-1.75
sg14
F0.25
sg15
F-0.5
sa(dp79
g2
I531
sg3
F98.4375
sg4
I749
sg5
F-18.1875
sg6
F-9.5625
sg7
F-5.75
sg8
F-1.44
sg9
F-0.11
sg10
F9.64
sg11
F-0.1875
sg12
F309.75
sg13
F4.9375
sg14
F-7.375
sg15
F-0.5625
sa(dp80
g2
I552
sg3
F98.25
sg4
I759
sg5
F-18.1875
sg6
F-9.0625
sg7
F-5.5625
sg8
F-0.34
sg9
F-0.03
sg10
F9.65
sg11
F-4.5625
sg12
F310.9375
sg13
F-2.25
sg14
F-28.25
sg15
F-0.75
sa(dp81
g2
I573
sg3
F98.1875
sg4
I761
sg5
F-18.875
sg6
F-8.75
sg7
F-5.875
sg8
F-1.2
sg9
F0.23
sg10
F8.23
sg11
F10.75
sg12
F314.5625
sg13
F3.3125
sg14
F-68.9375
sg15
F-0.875
sa(dp82
g2
I596
sg3
F98.125
sg4
I761
sg5
F-18.875
sg6
F-9.5625
sg7
F-4.75
sg8
F-1.24
sg9
F-0.06
sg10
F10.09
sg11
F6.5625
sg12
F320.1875
sg13
F-1.0
sg14
F-67.6875
sg15
F-0.9375
sa(dp83
g2
I619
sg3
F98.1875
sg4
I761
sg5
F-18.875
sg6
F-11.0625
sg7
F-4.25
sg8
F-1.2
sg9
F-0.22
sg10
F9.63
sg11
F3.9375
sg12
F326.3125
sg13
F2.0
sg14
F-77.5
sg15
F-1.125
sa(dp84
g2
I642
sg3
F98.125
sg4
I761
sg5
F-19.6875
sg6
F-10.875
sg7
F-1.75
sg8
F-1.13
sg9
F-0.62
sg10
F8.02
sg11
F2.75
sg12
F331.8125
sg13
F-1.1875
sg14
F-77.4375
sg15
F-1.375
sa(dp85
g2
I665
sg3
F98.0
sg4
I761
sg5
F-19.25
sg6
F-11.6875
sg7
F-0.0625
sg8
F-0.78
sg9
F-0.62
sg10
F9.5
sg11
F8.6875
sg12
F338.5625
sg13
F2.625
sg14
F-89.0
sg15
F-1.5625
sa(dp86
g2
I689
sg3
F97.9375
sg4
I761
sg5
F-19.25
sg6
F-11.5625
sg7
F2.25
sg8
F-0.93
sg9
F-0.33
sg10
F8.02
sg11
F8.5
sg12
F345.3125
sg13
F0.875
sg14
F-79.0
sg15
F-1.75
sa(dp87
g2
I712
sg3
F97.875
sg4
I761
sg5
F-20.0625
sg6
F-12.875
sg7
F3.75
sg8
F-1.28
sg9
F-1.33
sg10
F9.39
sg11
F4.875
sg12
F351.1875
sg13
F5.875
sg14
F-84.4375
sg15
F-1.9375
sa(dp88
g2
I735
sg3
F97.625
sg4
I761
sg5
F-19.75
sg6
F-12.25
sg7
F6.0625
sg8
F-1.1
sg9
F-0.24
sg10
F8.2
sg11
F12.25
sg12
F357.375
sg13
F-2.6875
sg14
F-81.125
sg15
F-2.0
sa(dp89
g2
I758
sg3
F97.3125
sg4
I761
sg5
F-19.75
sg6
F-12.875
sg7
F7.25
sg8
F-1.24
sg9
F-0.54
sg10
F10.91
sg11
F12.5625
sg12
F4.0
sg13
F-1.5625
sg14
F-81.9375
sg15
F-2.0
sa(dp90
g2
I781
sg3
F97.3125
sg4
I761
sg5
F-19.75
sg6
F-13.0
sg7
F9.5
sg8
F-0.67
sg9
F-1.95
sg10
F8.62
sg11
F5.6875
sg12
F10.5625
sg13
F4.1875
sg14
F-82.1875
sg15
F-2.25
sa(dp91
g2
I804
sg3
F97.1875
sg4
I761
sg5
F-19.0
sg6
F-11.25
sg7
F11.5
sg8
F-1.29
sg9
F-0.27
sg10
F9.91
sg11
F9.375
sg12
F16.0625
sg13
F2.3125
sg14
F-80.5625
sg15
F-2.25
sa(dp92
g2
I829
sg3
F96.875
sg4
I761
sg5
F-18.0
sg6
F-10.875
sg7
F12.25
sg8
F-1.12
sg9
F-1.34
sg10
F7.87
sg11
F16.1875
sg12
F22.25
sg13
F6.0
sg14
F-87.375
sg15
F-2.125
sa(dp93
g2
I856
sg3
F96.625
sg4
I762
sg5
F-18.375
sg6
F-9.875
sg7
F14.0625
sg8
F-1.46
sg9
F0.01
sg10
F11.74
sg11
F12.875
sg12
F29.4375
sg13
F2.3125
sg14
F-86.4375
sg15
F-2.0
sa(dp94
g2
I880
sg3
F96.75
sg4
I777
sg5
F-16.5
sg6
F-7.875
sg7
F16.5
sg8
F-2.36
sg9
F-1.11
sg10
F8.86
sg11
F-0.25
sg12
F34.9375
sg13
F-0.0625
sg14
F-41.5
sg15
F-2.3125
sa(dp95
g2
I905
sg3
F96.75
sg4
I800
sg5
F-16.5
sg6
F-6.75
sg7
F17.375
sg8
F-1.44
sg9
F-0.47
sg10
F9.02
sg11
F0.625
sg12
F36.25
sg13
F0.375
sg14
F-6.4375
sg15
F-2.125
sa(dp96
g2
I930
sg3
F96.5625
sg4
I827
sg5
F-15.875
sg6
F-8.5
sg7
F17.75
sg8
F-1.3
sg9
F-0.55
sg10
F10.5
sg11
F3.0625
sg12
F36.0
sg13
F-7.9375
sg14
F4.5
sg15
F-2.0625
sa(dp97
g2
I955
sg3
F96.4375
sg4
I851
sg5
F-15.1875
sg6
F-8.1875
sg7
F17.75
sg8
F-0.87
sg9
F0.04
sg10
F9.1
sg11
F-0.25
sg12
F35.375
sg13
F-4.3125
sg14
F3.5625
sg15
F-1.6875
sa(dp98
g2
I978
sg3
F96.4375
sg4
I876
sg5
F-14.875
sg6
F-8.25
sg7
F18.0625
sg8
F-1.35
sg9
F0.42
sg10
F7.43
sg11
F-0.9375
sg12
F35.25
sg13
F-6.125
sg14
F2.5625
sg15
F-1.75
sa(dp99
g2
I1002
sg3
F96.625
sg4
I899
sg5
F-14.0625
sg6
F-8.375
sg7
F17.6875
sg8
F-1.31
sg9
F-1.0
sg10
F8.58
sg11
F-1.6875
sg12
F35.3125
sg13
F1.375
sg14
F-1.3125
sg15
F-2.0
sa(dp100
g2
I1027
sg3
F96.5625
sg4
I924
sg5
F-13.375
sg6
F-8.375
sg7
F17.6875
sg8
F-1.52
sg9
F0.12
sg10
F8.71
sg11
F0.5
sg12
F35.125
sg13
F-3.3125
sg14
F5.0625
sg15
F-1.9375
sa(dp101
g2
I1051
sg3
F96.5625
sg4
I948
sg5
F-13.0
sg6
F-8.375
sg7
F18.0
sg8
F-1.55
sg9
F-0.29
sg10
F9.18
sg11
F-0.125
sg12
F35.0
sg13
F-3.8125
sg14
F-0.3125
sg15
F-2.0625
sa(dp102
g2
I1073
sg3
F96.625
sg4
I969
sg5
F-11.875
sg6
F-7.5
sg7
F19.1875
sg8
F-1.15
sg9
F-0.79
sg10
F7.42
sg11
F-1.5625
sg12
F35.1875
sg13
F2.1875
sg14
F0.8125
sg15
F-2.1875
sa(dp103
g2
I1095
sg3
F96.6875
sg4
I992
sg5
F-10.75
sg6
F-6.6875
sg7
F17.6875
sg8
F-1.18
sg9
F0.83
sg10
F8.93
sg11
F5.0625
sg12
F35.0
sg13
F1.5625
sg14
F0.375
sg15
F-2.0
sa(dp104
g2
I1116
sg3
F96.625
sg4
I1013
sg5
F-11.5625
sg6
F-6.25
sg7
F18.75
sg8
F-1.01
sg9
F-0.01
sg10
F9.71
sg11
F-5.1875
sg12
F35.375
sg13
F-2.625
sg14
F-0.5
sg15
F-2.25
sa(dp105
g2
I1139
sg3
F96.625
sg4
I1035
sg5
F-11.25
sg6
F-6.0
sg7
F18.5625
sg8
F-1.51
sg9
F-0.15
sg10
F10.72
sg11
F5.625
sg12
F35.1875
sg13
F-1.4375
sg14
F3.3125
sg15
F-2.1875
sa(dp106
g2
I1160
sg3
F96.4375
sg4
I1057
sg5
F-10.1875
sg6
F-5.5625
sg7
F18.5
sg8
F-1.86
sg9
F-0.11
sg10
F11.58
sg11
F-0.4375
sg12
F34.9375
sg13
F-5.5
sg14
F2.125
sg15
F-2.1875
sa(dp107
g2
I1182
sg3
F96.4375
sg4
I1079
sg5
F-11.6875
sg6
F-6.0
sg7
F17.75
sg8
F-1.71
sg9
F-0.02
sg10
F12.77
sg11
F3.25
sg12
F34.6875
sg13
F-5.125
sg14
F0.125
sg15
F-1.9375
sa(dp108
g2
I1203
sg3
F96.75
sg4
I1100
sg5
F-10.1875
sg6
F-6.0
sg7
F18.0625
sg8
F-1.35
sg9
F-0.22
sg10
F10.54
sg11
F-1.375
sg12
F34.75
sg13
F7.0
sg14
F-0.6875
sg15
F-2.0625
sa(dp109
g2
I1225
sg3
F96.75
sg4
I1122
sg5
F-9.875
sg6
F-4.75
sg7
F18.5625
sg8
F-1.46
sg9
F-0.25
sg10
F9.62
sg11
F-4.125
sg12
F34.9375
sg13
F-4.75
sg14
F1.875
sg15
F-2.3125
sa(dp110
g2
I1247
sg3
F96.8125
sg4
I1144
sg5
F-9.5
sg6
F-4.5
sg7
F17.75
sg8
F-1.98
sg9
F-0.77
sg10
F13.47
sg11
F-2.4375
sg12
F35.125
sg13
F0.5
sg14
F0.9375
sg15
F-2.5
sa(dp111
g2
I1270
sg3
F96.625
sg4
I1167
sg5
F-9.25
sg6
F-4.5
sg7
F16.875
sg8
F-1.55
sg9
F-0.26
sg10
F11.47
sg11
F9.3125
sg12
F34.875
sg13
F-8.1875
sg14
F-6.75
sg15
F-2.125
sa(dp112
g2
I1294
sg3
F96.4375
sg4
I1191
sg5
F-8.875
sg6
F-5.1875
sg7
F16.5625
sg8
F-1.02
sg9
F0.0
sg10
F9.39
sg11
F5.6875
sg12
F34.75
sg13
F-0.4375
sg14
F4.6875
sg15
F-1.8125
sa(dp113
g2
I1318
sg3
F96.4375
sg4
I1214
sg5
F-8.875
sg6
F-4.5
sg7
F16.5625
sg8
F-1.04
sg9
F-0.72
sg10
F9.04
sg11
F-3.75
sg12
F34.5
sg13
F1.1875
sg14
F2.1875
sg15
F-1.75
sa(dp114
g2
I1341
sg3
F96.625
sg4
I1237
sg5
F-8.5
sg6
F-3.0
sg7
F16.5625
sg8
F-0.82
sg9
F-0.14
sg10
F8.22
sg11
F-3.0625
sg12
F34.25
sg13
F2.125
sg14
F5.8125
sg15
F-1.9375
sa.