(lp0
(dp1
S'left_enc'
p2
I0
sS'euler_z'
p3
F93.8125
sS'right_enc'
p4
I0
sS'mag_y'
p5
F-80.6875
sS'mag_x'
p6
F44.875
sS'mag_z'
p7
F72.25
sS'accel_z'
p8
F-0.79
sS'accel_x'
p9
F-0.29
sS'accel_y'
p10
F9.76
sS'gyro_z'
p11
F0.0
sS'euler_x'
p12
F161.0
sS'gyro_x'
p13
F0.1875
sS'gyro_y'
p14
F0.25
sS'euler_y'
p15
F-1.5625
sa(dp16
g2
I0
sg3
F93.8125
sg4
I0
sg5
F-78.75
sg6
F46.75
sg7
F74.25
sg8
F-0.77
sg9
F-0.28
sg10
F9.77
sg11
F0.0
sg12
F161.0
sg13
F0.25
sg14
F0.25
sg15
F-1.5625
sa(dp17
g2
I0
sg3
F93.8125
sg4
I0
sg5
F-79.1875
sg6
F46.0
sg7
F74.6875
sg8
F-0.77
sg9
F-0.28
sg10
F9.78
sg11
F0.0
sg12
F161.0
sg13
F0.1875
sg14
F0.0625
sg15
F-1.5625
sa(dp18
g2
I0
sg3
F93.8125
sg4
I0
sg5
F-79.1875
sg6
F46.0
sg7
F73.5
sg8
F-0.76
sg9
F-0.27
sg10
F9.77
sg11
F-0.0625
sg12
F161.0
sg13
F-0.125
sg14
F0.1875
sg15
F-1.5625
sa(dp19
g2
I0
sg3
F93.8125
sg4
I0
sg5
F-79.5
sg6
F44.875
sg7
F73.5
sg8
F-0.78
sg9
F-0.3
sg10
F9.77
sg11
F0.0
sg12
F161.0
sg13
F0.125
sg14
F-0.0625
sg15
F-1.5625
sa(dp20
g2
I0
sg3
F93.8125
sg4
I0
sg5
F-78.75
sg6
F46.0
sg7
F73.0625
sg8
F-0.78
sg9
F-0.27
sg10
F9.78
sg11
F-0.125
sg12
F161.0
sg13
F-0.125
sg14
F0.0625
sg15
F-1.5625
sa(dp21
g2
I0
sg3
F93.8125
sg4
I0
sg5
F-79.1875
sg6
F46.375
sg7
F73.875
sg8
F-0.78
sg9
F-0.29
sg10
F9.79
sg11
F0.0
sg12
F161.0
sg13
F-0.125
sg14
F-0.0625
sg15
F-1.5625
sa(dp22
g2
I0
sg3
F93.8125
sg4
I0
sg5
F-79.5
sg6
F46.0
sg7
F74.25
sg8
F-0.79
sg9
F-0.3
sg10
F9.75
sg11
F0.0
sg12
F161.0
sg13
F0.0625
sg14
F0.0625
sg15
F-1.5625
sa(dp23
g2
I0
sg3
F93.8125
sg4
I0
sg5
F-79.1875
sg6
F46.375
sg7
F74.75
sg8
F-0.76
sg9
F-0.3
sg10
F9.77
sg11
F-0.0625
sg12
F161.0
sg13
F0.1875
sg14
F0.0
sg15
F-1.5625
sa(dp24
g2
I0
sg3
F93.8125
sg4
I0
sg5
F-79.1875
sg6
F45.5625
sg7
F74.375
sg8
F-0.81
sg9
F-0.28
sg10
F9.77
sg11
F0.0
sg12
F161.0
sg13
F-0.125
sg14
F0.0625
sg15
F-1.5625
sa(dp25
g2
I0
sg3
F93.8125
sg4
I0
sg5
F-78.75
sg6
F44.5
sg7
F74.25
sg8
F-0.76
sg9
F-0.27
sg10
F9.78
sg11
F-0.0625
sg12
F161.0
sg13
F0.125
sg14
F-0.125
sg15
F-1.5625
sa(dp26
g2
I0
sg3
F93.8125
sg4
I0
sg5
F-79.5
sg6
F46.375
sg7
F74.25
sg8
F-0.81
sg9
F-0.29
sg10
F9.77
sg11
F0.0625
sg12
F161.0
sg13
F-0.0625
sg14
F-0.0625
sg15
F-1.5625
sa(dp27
g2
I0
sg3
F93.8125
sg4
I0
sg5
F-79.875
sg6
F46.0
sg7
F74.375
sg8
F-0.75
sg9
F-0.28
sg10
F9.77
sg11
F0.0
sg12
F161.0
sg13
F-0.125
sg14
F0.1875
sg15
F-1.5625
sa(dp28
g2
I0
sg3
F93.8125
sg4
I0
sg5
F-79.1875
sg6
F46.0
sg7
F73.0625
sg8
F-0.79
sg9
F-0.28
sg10
F9.78
sg11
F0.0625
sg12
F161.0
sg13
F-0.125
sg14
F-0.125
sg15
F-1.5625
sa(dp29
g2
I0
sg3
F93.8125
sg4
I0
sg5
F-79.1875
sg6
F46.0
sg7
F73.0625
sg8
F-0.77
sg9
F-0.28
sg10
F9.77
sg11
F0.0
sg12
F161.0
sg13
F0.0625
sg14
F0.25
sg15
F-1.5625
sa(dp30
g2
I0
sg3
F93.8125
sg4
I0
sg5
F-78.375
sg6
F45.25
sg7
F73.5625
sg8
F-0.77
sg9
F-0.27
sg10
F9.78
sg11
F-0.0625
sg12
F161.0
sg13
F-0.125
sg14
F0.0
sg15
F-1.5625
sa(dp31
g2
I0
sg3
F93.8125
sg4
I0
sg5
F-78.75
sg6
F45.5625
sg7
F73.875
sg8
F-0.78
sg9
F-0.28
sg10
F9.77
sg11
F-0.1875
sg12
F161.0
sg13
F-0.125
sg14
F0.0
sg15
F-1.5625
sa(dp32
g2
I0
sg3
F93.8125
sg4
I0
sg5
F-79.5
sg6
F46.0
sg7
F73.875
sg8
F-0.78
sg9
F-0.29
sg10
F9.78
sg11
F-0.0625
sg12
F161.0
sg13
F0.0
sg14
F0.125
sg15
F-1.5625
sa(dp33
g2
I0
sg3
F93.8125
sg4
I0
sg5
F-79.1875
sg6
F45.5625
sg7
F74.25
sg8
F-0.79
sg9
F-0.26
sg10
F9.77
sg11
F0.0
sg12
F161.0
sg13
F0.0625
sg14
F-0.0625
sg15
F-1.5625
sa(dp34
g2
I0
sg3
F93.8125
sg4
I0
sg5
F-79.5
sg6
F46.0
sg7
F73.1875
sg8
F-0.79
sg9
F-0.27
sg10
F9.76
sg11
F-0.0625
sg12
F161.0
sg13
F-0.125
sg14
F-0.4375
sg15
F-1.5625
sa(dp35
g2
I0
sg3
F93.8125
sg4
I0
sg5
F-78.75
sg6
F46.0
sg7
F74.75
sg8
F-0.76
sg9
F-0.28
sg10
F9.78
sg11
F0.0
sg12
F161.0
sg13
F-0.25
sg14
F-0.125
sg15
F-1.5625
sa(dp36
g2
I0
sg3
F93.8125
sg4
I0
sg5
F-79.1875
sg6
F46.375
sg7
F75.1875
sg8
F-0.79
sg9
F-0.29
sg10
F9.76
sg11
F0.0625
sg12
F161.0
sg13
F0.1875
sg14
F0.125
sg15
F-1.5625
sa(dp37
g2
I0
sg3
F93.8125
sg4
I0
sg5
F-79.1875
sg6
F46.0
sg7
F75.0625
sg8
F-0.79
sg9
F-0.28
sg10
F9.79
sg11
F0.0625
sg12
F161.0
sg13
F0.125
sg14
F0.3125
sg15
F-1.5625
sa(dp38
g2
I0
sg3
F93.8125
sg4
I0
sg5
F-79.5
sg6
F46.75
sg7
F74.6875
sg8
F-0.78
sg9
F-0.28
sg10
F9.76
sg11
F-0.0625
sg12
F161.0
sg13
F0.1875
sg14
F0.125
sg15
F-1.5625
sa(dp39
g2
I0
sg3
F93.8125
sg4
I0
sg5
F-78.75
sg6
F46.375
sg7
F73.875
sg8
F-0.79
sg9
F-0.29
sg10
F9.81
sg11
F-0.0625
sg12
F161.0
sg13
F-0.0625
sg14
F-0.1875
sg15
F-1.5625
sa(dp40
g2
I0
sg3
F93.8125
sg4
I0
sg5
F-79.1875
sg6
F46.0
sg7
F74.6875
sg8
F-0.79
sg9
F-0.27
sg10
F9.75
sg11
F-0.125
sg12
F161.0
sg13
F0.0625
sg14
F0.1875
sg15
F-1.5625
sa(dp41
g2
I5
sg3
F93.8125
sg4
I5
sg5
F-78.75
sg6
F46.375
sg7
F73.0625
sg8
F-1.31
sg9
F-0.61
sg10
F10.41
sg11
F0.125
sg12
F161.0
sg13
F0.625
sg14
F-0.125
sg15
F-1.5625
sa(dp42
g2
I39
sg3
F93.5
sg4
I38
sg5
F-77.6875
sg6
F45.25
sg7
F74.5625
sg8
F-0.88
sg9
F-0.6
sg10
F9.92
sg11
F-1.125
sg12
F160.875
sg13
F0.25
sg14
F3.5
sg15
F-1.5
sa(dp43
g2
I77
sg3
F93.1875
sg4
I78
sg5
F-67.75
sg6
F39.0
sg7
F75.25
sg8
F-0.2
sg9
F-0.43
sg10
F10.34
sg11
F-0.875
sg12
F159.875
sg13
F-7.0
sg14
F6.6875
sg15
F-1.4375
sa(dp44
g2
I115
sg3
F93.5625
sg4
I116
sg5
F-60.1875
sg6
F35.375
sg7
F76.1875
sg8
F-1.09
sg9
F-0.41
sg10
F9.32
sg11
F-0.75
sg12
F159.5625
sg13
F-1.875
sg14
F-0.5625
sg15
F-1.5
sa(dp45
g2
I151
sg3
F93.5625
sg4
I152
sg5
F-54.375
sg6
F33.1875
sg7
F74.5625
sg8
F-0.85
sg9
F-0.12
sg10
F9.38
sg11
F0.875
sg12
F160.125
sg13
F3.8125
sg14
F-4.1875
sg15
F-1.375
sa(dp46
g2
I188
sg3
F93.5625
sg4
I189
sg5
F-45.6875
sg6
F30.25
sg7
F71.0
sg8
F-0.19
sg9
F-0.12
sg10
F10.83
sg11
F-0.375
sg12
F160.1875
sg13
F-0.625
sg14
F3.4375
sg15
F-1.375
sa(dp47
g2
I225
sg3
F93.75
sg4
I225
sg5
F-40.75
sg6
F28.0625
sg7
F69.0625
sg8
F-1.74
sg9
F-0.06
sg10
F8.76
sg11
F2.4375
sg12
F159.8125
sg13
F5.0625
sg14
F2.0
sg15
F-1.3125
sa(dp48
g2
I262
sg3
F93.75
sg4
I263
sg5
F-34.25
sg6
F24.0625
sg7
F64.75
sg8
F-0.84
sg9
F-0.55
sg10
F9.81
sg11
F1.125
sg12
F159.8125
sg13
F-2.6875
sg14
F-1.6875
sg15
F-1.25
sa(dp49
g2
I301
sg3
F93.5625
sg4
I302
sg5
F-30.25
sg6
F22.25
sg7
F61.375
sg8
F-0.43
sg9
F-0.32
sg10
F10.31
sg11
F1.6875
sg12
F159.9375
sg13
F-0.125
sg14
F-4.5
sg15
F-1.3125
sa(dp50
g2
I340
sg3
F93.625
sg4
I341
sg5
F-26.0
sg6
F21.25
sg7
F55.5625
sg8
F-0.62
sg9
F-0.35
sg10
F10.29
sg11
F-0.8125
sg12
F160.25
sg13
F0.6875
sg14
F-0.875
sg15
F-1.5
sa(dp51
g2
I376
sg3
F93.8125
sg4
I377
sg5
F-22.25
sg6
F19.75
sg7
F50.0625
sg8
F-0.15
sg9
F-0.83
sg10
F10.16
sg11
F-1.625
sg12
F160.375
sg13
F-0.625
sg14
F-4.25
sg15
F-1.4375
sa(dp52
g2
I414
sg3
F93.75
sg4
I414
sg5
F-21.5
sg6
F18.0625
sg7
F46.1875
sg8
F-0.65
sg9
F-0.17
sg10
F10.0
sg11
F1.0
sg12
F159.875
sg13
F-0.25
sg14
F6.1875
sg15
F-1.3125
sa(dp53
g2
I450
sg3
F93.9375
sg4
I450
sg5
F-21.1875
sg6
F16.5625
sg7
F40.0
sg8
F-0.9
sg9
F-0.31
sg10
F9.27
sg11
F-2.5
sg12
F159.5625
sg13
F3.375
sg14
F-1.3125
sg15
F-1.3125
sa(dp54
g2
I486
sg3
F93.875
sg4
I487
sg5
F-20.75
sg6
F17.25
sg7
F38.875
sg8
F-0.88
sg9
F-0.23
sg10
F9.95
sg11
F2.75
sg12
F159.8125
sg13
F-1.5
sg14
F-6.4375
sg15
F-1.3125
sa(dp55
g2
I524
sg3
F93.6875
sg4
I524
sg5
F-21.75
sg6
F16.75
sg7
F35.75
sg8
F-0.36
sg9
F-0.46
sg10
F10.41
sg11
F2.75
sg12
F160.0
sg13
F-2.375
sg14
F-5.1875
sg15
F-1.1875
sa(dp56
g2
I561
sg3
F93.875
sg4
I562
sg5
F-23.0
sg6
F15.75
sg7
F31.5
sg8
F-0.97
sg9
F-0.43
sg10
F10.27
sg11
F-3.0625
sg12
F160.4375
sg13
F-1.25
sg14
F-1.0
sg15
F-1.25
sa(dp57
g2
I598
sg3
F94.125
sg4
I599
sg5
F-23.6875
sg6
F15.75
sg7
F29.1875
sg8
F-1.41
sg9
F-0.73
sg10
F8.54
sg11
F1.125
sg12
F160.3125
sg13
F2.5
sg14
F-2.875
sg15
F-1.125
sa(dp58
g2
I636
sg3
F94.1875
sg4
I636
sg5
F-25.75
sg6
F15.75
sg7
F28.375
sg8
F-0.9
sg9
F0.1
sg10
F8.96
sg11
F-3.375
sg12
F160.125
sg13
F3.1875
sg14
F3.75
sg15
F-1.0625
sa(dp59
g2
I672
sg3
F94.0625
sg4
I673
sg5
F-26.75
sg6
F15.0625
sg7
F27.25
sg8
F-1.25
sg9
F0.0
sg10
F9.09
sg11
F-0.375
sg12
F160.3125
sg13
F0.4375
sg14
F0.125
sg15
F-1.25
sa(dp60
g2
I709
sg3
F94.25
sg4
I709
sg5
F-27.875
sg6
F14.375
sg7
F28.375
sg8
F-1.22
sg9
F0.09
sg10
F9.1
sg11
F2.75
sg12
F160.1875
sg13
F0.9375
sg14
F-1.6875
sg15
F-1.25
sa(dp61
g2
I746
sg3
F94.3125
sg4
I747
sg5
F-29.5625
sg6
F12.5625
sg7
F28.0625
sg8
F-0.72
sg9
F-0.54
sg10
F10.43
sg11
F-0.25
sg12
F160.3125
sg13
F2.0
sg14
F-2.0
sg15
F-1.1875
sa(dp62
g2
I784
sg3
F94.125
sg4
I783
sg5
F-28.1875
sg6
F12.875
sg7
F29.1875
sg8
F-1.33
sg9
F0.4
sg10
F9.41
sg11
F-3.9375
sg12
F160.1875
sg13
F-2.8125
sg14
F6.3125
sg15
F-0.9375
sa(dp63
g2
I821
sg3
F94.0625
sg4
I822
sg5
F-29.25
sg6
F11.875
sg7
F28.0625
sg8
F-0.85
sg9
F-0.19
sg10
F9.04
sg11
F-1.4375
sg12
F159.75
sg13
F4.5
sg14
F1.875
sg15
F-1.125
sa(dp64
g2
I857
sg3
F93.875
sg4
I857
sg5
F-29.5625
sg6
F10.75
sg7
F28.0625
sg8
F-0.87
sg9
F0.0
sg10
F9.02
sg11
F2.1875
sg12
F159.6875
sg13
F3.375
sg14
F-2.875
sg15
F-1.0625
sa(dp65
g2
I885
sg3
F93.6875
sg4
I895
sg5
F-30.0
sg6
F8.5625
sg7
F28.875
sg8
F-0.18
sg9
F-1.58
sg10
F8.95
sg11
F0.0625
sg12
F159.25
sg13
F-2.6875
sg14
F11.9375
sg15
F-0.9375
sa(dp66
g2
I887
sg3
F93.8125
sg4
I930
sg5
F-29.6875
sg6
F5.6875
sg7
F28.875
sg8
F-0.55
sg9
F-0.78
sg10
F10.08
sg11
F-7.9375
sg12
F151.875
sg13
F1.875
sg14
F81.4375
sg15
F-0.9375
sa(dp67
g2
I887
sg3
F93.8125
sg4
I968
sg5
F-29.6875
sg6
F3.0625
sg7
F28.5
sg8
F-1.27
sg9
F0.17
sg10
F9.11
sg11
F-3.625
sg12
F141.75
sg13
F-0.5
sg14
F84.5
sg15
F-0.6875
sa(dp68
g2
I887
sg3
F93.5625
sg4
I1005
sg5
F-29.75
sg6
F-4.875
sg7
F31.375
sg8
F-0.52
sg9
F0.56
sg10
F9.89
sg11
F-6.0625
sg12
F132.4375
sg13
F5.3125
sg14
F86.1875
sg15
F-0.5
sa(dp69
g2
I887
sg3
F93.5625
sg4
I1044
sg5
F-29.1875
sg6
F-8.5
sg7
F30.375
sg8
F0.27
sg9
F-2.51
sg10
F10.7
sg11
F-4.8125
sg12
F122.125
sg13
F-1.8125
sg14
F80.125
sg15
F-0.625
sa(dp70
g2
I887
sg3
F93.6875
sg4
I1080
sg5
F-29.75
sg6
F-14.75
sg7
F31.1875
sg8
F-1.24
sg9
F-0.02
sg10
F8.94
sg11
F0.0625
sg12
F112.5625
sg13
F-5.3125
sg14
F81.625
sg15
F-0.4375
sa(dp71
g2
I887
sg3
F93.625
sg4
I1118
sg5
F-28.875
sg6
F-17.6875
sg7
F30.75
sg8
F-0.85
sg9
F0.08
sg10
F9.6
sg11
F-4.4375
sg12
F102.3125
sg13
F-0.5
sg14
F85.1875
sg15
F-0.0625
sa(dp72
g2
I887
sg3
F93.5
sg4
I1154
sg5
F-28.25
sg6
F-23.375
sg7
F30.5
sg8
F0.16
sg9
F-1.32
sg10
F10.79
sg11
F-5.0625
sg12
F92.8125
sg13
F-6.1875
sg14
F82.125
sg15
F-0.125
sa(dp73
g2
I887
sg3
F93.6875
sg4
I1191
sg5
F-27.1875
sg6
F-27.5625
sg7
F26.75
sg8
F-0.11
sg9
F-1.07
sg10
F10.48
sg11
F-7.0625
sg12
F83.0
sg13
F0.375
sg14
F83.0625
sg15
F0.0
sa(dp74
g2
I887
sg3
F93.5625
sg4
I1228
sg5
F-26.0625
sg6
F-31.1875
sg7
F24.5625
sg8
F-0.59
sg9
F-0.74
sg10
F10.13
sg11
F-5.25
sg12
F72.3125
sg13
F-1.9375
sg14
F78.375
sg15
F0.0
sa(dp75
g2
I887
sg3
F93.25
sg4
I1244
sg5
F-24.375
sg6
F-37.0625
sg7
F20.1875
sg8
F1.33
sg9
F1.59
sg10
F11.07
sg11
F0.75
sg12
F64.625
sg13
F-2.5
sg14
F17.8125
sg15
F0.0
sa(dp76
g2
I887
sg3
F93.4375
sg4
I1244
sg5
F-24.6875
sg6
F-38.1875
sg7
F20.0625
sg8
F-0.7
sg9
F-0.07
sg10
F9.77
sg11
F0.1875
sg12
F64.875
sg13
F0.25
sg14
F0.875
sg15
F0.0625
sa(dp77
g2
I887
sg3
F93.5
sg4
I1244
sg5
F-24.375
sg6
F-38.0
sg7
F19.25
sg8
F-0.72
sg9
F-0.21
sg10
F9.75
sg11
F-0.25
sg12
F64.9375
sg13
F-0.1875
sg14
F0.125
sg15
F0.0
sa(dp78
g2
I887
sg3
F93.5625
sg4
I1244
sg5
F-25.1875
sg6
F-38.0
sg7
F18.875
sg8
F-0.73
sg9
F-0.16
sg10
F9.78
sg11
F0.125
sg12
F65.0
sg13
F0.0625
sg14
F0.0625
sg15
F0.0
sa(dp79
g2
I887
sg3
F93.625
sg4
I1244
sg5
F-25.1875
sg6
F-37.6875
sg7
F20.5
sg8
F-0.76
sg9
F-0.12
sg10
F9.78
sg11
F0.0625
sg12
F65.0625
sg13
F-0.3125
sg14
F-0.25
sg15
F-0.0625
sa(dp80
g2
I887
sg3
F93.6875
sg4
I1244
sg5
F-25.5625
sg6
F-37.6875
sg7
F20.0625
sg8
F-0.75
sg9
F-0.12
sg10
F9.77
sg11
F0.0
sg12
F65.125
sg13
F0.0625
sg14
F0.3125
sg15
F-0.125
sa(dp81
g2
I887
sg3
F93.75
sg4
I1244
sg5
F-24.75
sg6
F-36.875
sg7
F19.25
sg8
F-0.74
sg9
F-0.12
sg10
F9.77
sg11
F-0.0625
sg12
F65.1875
sg13
F-0.1875
sg14
F-0.0625
sg15
F-0.1875
sa(dp82
g2
I887
sg3
F93.8125
sg4
I1244
sg5
F-25.5625
sg6
F-37.6875
sg7
F19.6875
sg8
F-0.74
sg9
F-0.14
sg10
F9.77
sg11
F0.0
sg12
F65.25
sg13
F-0.125
sg14
F-0.1875
sg15
F-0.1875
sa(dp83
g2
I887
sg3
F93.8125
sg4
I1244
sg5
F-24.75
sg6
F-38.0
sg7
F20.0625
sg8
F-0.75
sg9
F-0.12
sg10
F9.77
sg11
F0.0625
sg12
F65.25
sg13
F-0.125
sg14
F-0.0625
sg15
F-0.25
sa(dp84
g2
I887
sg3
F93.875
sg4
I1244
sg5
F-25.1875
sg6
F-38.25
sg7
F18.875
sg8
F-0.75
sg9
F-0.14
sg10
F9.77
sg11
F0.0
sg12
F65.3125
sg13
F0.0625
sg14
F-0.125
sg15
F-0.25
sa(dp85
g2
I887
sg3
F93.875
sg4
I1244
sg5
F-24.75
sg6
F-38.6875
sg7
F20.875
sg8
F-0.75
sg9
F-0.13
sg10
F9.77
sg11
F0.0625
sg12
F65.3125
sg13
F0.0
sg14
F-0.125
sg15
F-0.3125
sa(dp86
g2
I887
sg3
F93.875
sg4
I1244
sg5
F-24.375
sg6
F-38.0
sg7
F19.6875
sg8
F-0.75
sg9
F-0.12
sg10
F9.79
sg11
F0.0
sg12
F65.3125
sg13
F0.125
sg14
F0.125
sg15
F-0.3125
sa(dp87
g2
I887
sg3
F93.875
sg4
I1244
sg5
F-24.75
sg6
F-37.25
sg7
F20.875
sg8
F-0.76
sg9
F-0.14
sg10
F9.76
sg11
F-0.0625
sg12
F65.3125
sg13
F-0.1875
sg14
F-0.375
sg15
F-0.3125
sa(dp88
g2
I887
sg3
F93.875
sg4
I1244
sg5
F-24.75
sg6
F-37.6875
sg7
F19.6875
sg8
F-0.73
sg9
F-0.11
sg10
F9.76
sg11
F0.125
sg12
F65.3125
sg13
F-0.1875
sg14
F-0.0625
sg15
F-0.3125
sa(dp89
g2
I887
sg3
F93.875
sg4
I1244
sg5
F-24.75
sg6
F-38.25
sg7
F20.0625
sg8
F-0.75
sg9
F-0.12
sg10
F9.78
sg11
F0.0625
sg12
F65.3125
sg13
F0.25
sg14
F-0.0625
sg15
F-0.3125
sa(dp90
g2
I887
sg3
F93.875
sg4
I1244
sg5
F-25.1875
sg6
F-38.0
sg7
F19.6875
sg8
F-0.75
sg9
F-0.12
sg10
F9.79
sg11
F0.125
sg12
F65.3125
sg13
F-0.1875
sg14
F0.0
sg15
F-0.3125
sa(dp91
g2
I887
sg3
F93.875
sg4
I1244
sg5
F-25.5625
sg6
F-37.6875
sg7
F19.25
sg8
F-0.74
sg9
F-0.12
sg10
F9.76
sg11
F0.0
sg12
F65.3125
sg13
F0.0625
sg14
F0.0
sg15
F-0.3125
sa(dp92
g2
I887
sg3
F93.875
sg4
I1244
sg5
F-24.375
sg6
F-38.0
sg7
F20.0625
sg8
F-0.74
sg9
F-0.11
sg10
F9.78
sg11
F0.0
sg12
F65.3125
sg13
F-0.0625
sg14
F0.0
sg15
F-0.3125
sa(dp93
g2
I887
sg3
F93.875
sg4
I1244
sg5
F-25.1875
sg6
F-37.6875
sg7
F20.875
sg8
F-0.76
sg9
F-0.12
sg10
F9.79
sg11
F-0.0625
sg12
F65.3125
sg13
F0.125
sg14
F0.0
sg15
F-0.3125
sa(dp94
g2
I887
sg3
F93.875
sg4
I1244
sg5
F-25.875
sg6
F-37.25
sg7
F20.0625
sg8
F-0.78
sg9
F-0.13
sg10
F9.76
sg11
F0.0625
sg12
F65.3125
sg13
F-0.3125
sg14
F0.0
sg15
F-0.3125
sa(dp95
g2
I887
sg3
F93.875
sg4
I1244
sg5
F-24.75
sg6
F-38.6875
sg7
F18.875
sg8
F-0.74
sg9
F-0.14
sg10
F9.77
sg11
F0.0
sg12
F65.3125
sg13
F0.125
sg14
F0.0625
sg15
F-0.3125
sa(dp96
g2
I887
sg3
F93.875
sg4
I1244
sg5
F-25.875
sg6
F-38.0
sg7
F19.25
sg8
F-0.75
sg9
F-0.14
sg10
F9.78
sg11
F-0.125
sg12
F65.3125
sg13
F0.0625
sg14
F0.0625
sg15
F-0.3125
sa(dp97
g2
I887
sg3
F93.875
sg4
I1244
sg5
F-26.25
sg6
F-37.6875
sg7
F18.0625
sg8
F-0.74
sg9
F-0.14
sg10
F9.79
sg11
F0.0
sg12
F65.3125
sg13
F-0.125
sg14
F0.0
sg15
F-0.3125
sa(dp98
g2
I887
sg3
F93.875
sg4
I1244
sg5
F-25.1875
sg6
F-36.875
sg7
F20.5
sg8
F-0.78
sg9
F-0.13
sg10
F9.76
sg11
F0.0
sg12
F65.3125
sg13
F0.0
sg14
F0.375
sg15
F-0.3125
sa(dp99
g2
I887
sg3
F93.875
sg4
I1244
sg5
F-25.5625
sg6
F-37.6875
sg7
F20.5
sg8
F-0.75
sg9
F-0.14
sg10
F9.76
sg11
F-0.0625
sg12
F65.3125
sg13
F0.125
sg14
F-0.125
sg15
F-0.3125
sa(dp100
g2
I887
sg3
F93.875
sg4
I1244
sg5
F-24.75
sg6
F-37.25
sg7
F19.6875
sg8
F-0.77
sg9
F-0.12
sg10
F9.8
sg11
F0.0
sg12
F65.3125
sg13
F-0.0625
sg14
F0.0625
sg15
F-0.3125
sa(dp101
g2
I887
sg3
F93.875
sg4
I1244
sg5
F-25.5625
sg6
F-37.6875
sg7
F20.0625
sg8
F-0.74
sg9
F-0.12
sg10
F9.79
sg11
F0.0
sg12
F65.3125
sg13
F0.125
sg14
F0.0
sg15
F-0.3125
sa(dp102
g2
I887
sg3
F93.875
sg4
I1244
sg5
F-25.5625
sg6
F-37.25
sg7
F19.6875
sg8
F-0.77
sg9
F-0.13
sg10
F9.79
sg11
F0.0625
sg12
F65.3125
sg13
F0.0
sg14
F0.0
sg15
F-0.3125
sa(dp103
g2
I887
sg3
F93.875
sg4
I1244
sg5
F-25.5625
sg6
F-37.6875
sg7
F19.6875
sg8
F-0.74
sg9
F-0.13
sg10
F9.77
sg11
F0.0
sg12
F65.3125
sg13
F0.0
sg14
F0.0625
sg15
F-0.3125
sa(dp104
g2
I887
sg3
F93.875
sg4
I1244
sg5
F-25.5625
sg6
F-37.6875
sg7
F19.6875
sg8
F-0.79
sg9
F-0.16
sg10
F9.75
sg11
F-0.0625
sg12
F65.3125
sg13
F-0.125
sg14
F0.0625
sg15
F-0.3125
sa(dp105
g2
I887
sg3
F93.875
sg4
I1244
sg5
F-25.5625
sg6
F-38.25
sg7
F20.375
sg8
F-0.74
sg9
F-0.11
sg10
F9.77
sg11
F0.0625
sg12
F65.3125
sg13
F-0.0625
sg14
F-0.0625
sg15
F-0.3125
sa(dp106
g2
I887
sg3
F93.875
sg4
I1244
sg5
F-25.1875
sg6
F-37.6875
sg7
F18.875
sg8
F-0.77
sg9
F-0.13
sg10
F9.79
sg11
F0.0
sg12
F65.3125
sg13
F0.1875
sg14
F0.0
sg15
F-0.3125
sa(dp107
g2
I887
sg3
F93.875
sg4
I1244
sg5
F-25.5625
sg6
F-37.6875
sg7
F19.6875
sg8
F-0.74
sg9
F-0.15
sg10
F9.77
sg11
F0.125
sg12
F65.3125
sg13
F0.25
sg14
F0.125
sg15
F-0.3125
sa(dp108
g2
I887
sg3
F93.875
sg4
I1244
sg5
F-25.1875
sg6
F-38.0
sg7
F19.6875
sg8
F-0.79
sg9
F-0.14
sg10
F9.76
sg11
F0.0625
sg12
F65.3125
sg13
F0.0
sg14
F0.0
sg15
F-0.3125
sa(dp109
g2
I887
sg3
F93.875
sg4
I1244
sg5
F-25.5625
sg6
F-38.0
sg7
F18.875
sg8
F-0.75
sg9
F-0.14
sg10
F9.79
sg11
F0.0
sg12
F65.3125
sg13
F-0.0625
sg14
F-0.125
sg15
F-0.3125
sa(dp110
g2
I887
sg3
F93.875
sg4
I1244
sg5
F-25.1875
sg6
F-36.5
sg7
F20.0625
sg8
F-0.78
sg9
F-0.13
sg10
F9.77
sg11
F-0.0625
sg12
F65.3125
sg13
F-0.1875
sg14
F0.0
sg15
F-0.3125
sa(dp111
g2
I887
sg3
F93.875
sg4
I1244
sg5
F-24.75
sg6
F-38.25
sg7
F20.5
sg8
F-0.76
sg9
F-0.14
sg10
F9.78
sg11
F0.1875
sg12
F65.3125
sg13
F0.0625
sg14
F0.0
sg15
F-0.3125
sa(dp112
g2
I887
sg3
F93.875
sg4
I1244
sg5
F-25.5625
sg6
F-36.1875
sg7
F20.5
sg8
F-0.76
sg9
F-0.11
sg10
F9.78
sg11
F0.0
sg12
F65.3125
sg13
F-0.125
sg14
F-0.3125
sg15
F-0.3125
sa(dp113
g2
I887
sg3
F93.875
sg4
I1244
sg5
F-25.5625
sg6
F-38.0
sg7
F18.875
sg8
F-0.77
sg9
F-0.13
sg10
F9.77
sg11
F0.0625
sg12
F65.3125
sg13
F0.0
sg14
F0.0625
sg15
F-0.3125
sa(dp114
g2
I887
sg3
F93.875
sg4
I1244
sg5
F-25.5625
sg6
F-38.0
sg7
F21.1875
sg8
F-0.76
sg9
F-0.13
sg10
F9.78
sg11
F0.0
sg12
F65.3125
sg13
F-0.125
sg14
F0.0
sg15
F-0.3125
sa.