(lp0
(dp1
S'left_enc'
p2
I0
sS'euler_z'
p3
F96.125
sS'right_enc'
p4
I0
sS'mag_y'
p5
F-0.375
sS'mag_x'
p6
F3.6875
sS'mag_z'
p7
F-7.75
sS'accel_z'
p8
F-1.01
sS'accel_x'
p9
F-0.28
sS'accel_y'
p10
F9.18
sS'gyro_z'
p11
F0.0
sS'euler_x'
p12
F8.875
sS'gyro_x'
p13
F0.125
sS'gyro_y'
p14
F-0.125
sS'euler_y'
p15
F-1.5
sa(dp16
g2
I0
sg3
F96.125
sg4
I0
sg5
F0.6875
sg6
F5.5
sg7
F-6.1875
sg8
F-0.98
sg9
F-0.28
sg10
F9.18
sg11
F0.125
sg12
F8.875
sg13
F0.0
sg14
F0.125
sg15
F-1.5
sa(dp17
g2
I0
sg3
F96.125
sg4
I0
sg5
F0.375
sg6
F5.1875
sg7
F-5.375
sg8
F-0.98
sg9
F-0.28
sg10
F9.16
sg11
F0.0
sg12
F8.875
sg13
F0.0625
sg14
F-0.125
sg15
F-1.5
sa(dp18
g2
I0
sg3
F96.125
sg4
I0
sg5
F1.5
sg6
F5.5
sg7
F-4.5625
sg8
F-1.01
sg9
F-0.27
sg10
F9.18
sg11
F0.0625
sg12
F8.875
sg13
F-0.25
sg14
F0.1875
sg15
F-1.5
sa(dp19
g2
I0
sg3
F96.125
sg4
I0
sg5
F0.375
sg6
F4.375
sg7
F-6.5625
sg8
F-0.99
sg9
F-0.28
sg10
F9.19
sg11
F0.0625
sg12
F8.875
sg13
F0.0625
sg14
F0.3125
sg15
F-1.5
sa(dp20
g2
I0
sg3
F96.125
sg4
I0
sg5
F1.5
sg6
F5.1875
sg7
F-5.0
sg8
F-0.98
sg9
F-0.29
sg10
F9.18
sg11
F-0.0625
sg12
F8.875
sg13
F0.0625
sg14
F0.0625
sg15
F-1.5
sa(dp21
g2
I0
sg3
F96.125
sg4
I0
sg5
F0.0
sg6
F4.75
sg7
F-5.0
sg8
F-1.0
sg9
F-0.31
sg10
F9.15
sg11
F0.0625
sg12
F8.875
sg13
F0.0
sg14
F0.125
sg15
F-1.5
sa(dp22
g2
I9
sg3
F96.1875
sg4
I8
sg5
F0.6875
sg6
F5.1875
sg7
F-5.75
sg8
F-3.12
sg9
F0.34
sg10
F9.56
sg11
F-0.8125
sg12
F8.5
sg13
F-2.3125
sg14
F9.1875
sg15
F-1.5
sa(dp23
g2
I41
sg3
F96.3125
sg4
I40
sg5
F0.0
sg6
F6.375
sg7
F-5.875
sg8
F-0.78
sg9
F0.0
sg10
F11.13
sg11
F1.1875
sg12
F8.1875
sg13
F10.25
sg14
F4.4375
sg15
F-1.3125
sa(dp24
g2
I77
sg3
F96.3125
sg4
I77
sg5
F-0.375
sg6
F4.875
sg7
F-5.375
sg8
F-1.14
sg9
F0.45
sg10
F9.71
sg11
F-5.875
sg12
F7.75
sg13
F3.875
sg14
F4.3125
sg15
F-1.3125
sa(dp25
g2
I112
sg3
F96.1875
sg4
I112
sg5
F-1.5
sg6
F5.75
sg7
F-4.875
sg8
F-0.83
sg9
F-1.23
sg10
F7.9
sg11
F1.5
sg12
F8.0625
sg13
F1.0
sg14
F-0.4375
sg15
F-1.5625
sa(dp26
g2
I146
sg3
F96.375
sg4
I146
sg5
F-1.875
sg6
F6.5625
sg7
F-5.25
sg8
F-1.51
sg9
F-1.01
sg10
F7.37
sg11
F-0.25
sg12
F8.0625
sg13
F2.8125
sg14
F0.625
sg15
F-1.625
sa(dp27
g2
I181
sg3
F96.375
sg4
I181
sg5
F-2.5625
sg6
F5.25
sg7
F-5.0
sg8
F-1.35
sg9
F-0.43
sg10
F6.09
sg11
F5.75
sg12
F7.9375
sg13
F4.8125
sg14
F-5.75
sg15
F-1.4375
sa(dp28
g2
I216
sg3
F96.3125
sg4
I215
sg5
F-3.375
sg6
F6.0625
sg7
F-4.25
sg8
F-0.98
sg9
F-0.69
sg10
F8.22
sg11
F3.25
sg12
F8.0625
sg13
F3.5
sg14
F0.6875
sg15
F-1.375
sa(dp29
g2
I252
sg3
F96.3125
sg4
I252
sg5
F-4.0625
sg6
F7.25
sg7
F-4.5625
sg8
F-0.92
sg9
F-0.45
sg10
F8.81
sg11
F-1.125
sg12
F7.75
sg13
F4.375
sg14
F0.0
sg15
F-1.375
sa(dp30
g2
I288
sg3
F96.125
sg4
I287
sg5
F-3.6875
sg6
F6.875
sg7
F-4.25
sg8
F-1.54
sg9
F-0.47
sg10
F8.74
sg11
F0.125
sg12
F7.875
sg13
F3.375
sg14
F1.125
sg15
F-1.375
sa(dp31
g2
I322
sg3
F96.0625
sg4
I323
sg5
F-4.75
sg6
F6.1875
sg7
F-3.0
sg8
F-0.65
sg9
F-0.49
sg10
F12.13
sg11
F2.75
sg12
F8.0625
sg13
F1.8125
sg14
F-1.5
sg15
F-1.5
sa(dp32
g2
I359
sg3
F95.9375
sg4
I359
sg5
F-5.0625
sg6
F7.25
sg7
F-3.6875
sg8
F-0.4
sg9
F0.94
sg10
F10.52
sg11
F4.75
sg12
F8.375
sg13
F4.1875
sg14
F-2.375
sg15
F-1.5625
sa(dp33
g2
I393
sg3
F95.875
sg4
I393
sg5
F-5.375
sg6
F5.6875
sg7
F-2.5
sg8
F-0.38
sg9
F-0.71
sg10
F8.64
sg11
F2.625
sg12
F8.3125
sg13
F2.1875
sg14
F6.875
sg15
F-1.375
sa(dp34
g2
I427
sg3
F95.9375
sg4
I427
sg5
F-5.6875
sg6
F6.6875
sg7
F-4.0
sg8
F-0.8
sg9
F0.72
sg10
F9.69
sg11
F-0.1875
sg12
F7.9375
sg13
F2.0
sg14
F5.8125
sg15
F-1.3125
sa(dp35
g2
I461
sg3
F96.0
sg4
I461
sg5
F-5.25
sg6
F7.5
sg7
F-2.375
sg8
F-1.02
sg9
F-0.16
sg10
F8.36
sg11
F2.125
sg12
F8.125
sg13
F0.5
sg14
F-1.1875
sg15
F-1.5
sa(dp36
g2
I497
sg3
F96.0
sg4
I496
sg5
F-6.375
sg6
F6.75
sg7
F-1.1875
sg8
F-1.07
sg9
F-0.55
sg10
F8.78
sg11
F-0.9375
sg12
F8.375
sg13
F1.0625
sg14
F-1.3125
sg15
F-1.625
sa(dp37
g2
I531
sg3
F96.0625
sg4
I531
sg5
F-6.75
sg6
F7.875
sg7
F-1.1875
sg8
F-0.96
sg9
F-0.54
sg10
F7.74
sg11
F-0.0625
sg12
F8.25
sg13
F-1.3125
sg14
F0.6875
sg15
F-1.5
sa(dp38
g2
I566
sg3
F96.0625
sg4
I566
sg5
F-5.75
sg6
F8.5625
sg7
F-1.1875
sg8
F-0.97
sg9
F0.29
sg10
F8.55
sg11
F-0.8125
sg12
F8.3125
sg13
F2.0625
sg14
F0.75
sg15
F-1.4375
sa(dp39
g2
I601
sg3
F96.0
sg4
I600
sg5
F-6.0
sg6
F7.375
sg7
F-0.75
sg8
F-0.81
sg9
F-0.43
sg10
F12.09
sg11
F-0.125
sg12
F8.125
sg13
F-2.4375
sg14
F-0.5625
sg15
F-1.3125
sa(dp40
g2
I635
sg3
F95.9375
sg4
I634
sg5
F-5.75
sg6
F7.375
sg7
F0.375
sg8
F-0.86
sg9
F0.08
sg10
F12.94
sg11
F0.0
sg12
F8.0
sg13
F-4.0
sg14
F0.1875
sg15
F-1.25
sa(dp41
g2
I670
sg3
F95.875
sg4
I670
sg5
F-6.0
sg6
F7.375
sg7
F0.0
sg8
F-0.59
sg9
F-0.15
sg10
F10.2
sg11
F-2.6875
sg12
F8.125
sg13
F-0.5
sg14
F-0.25
sg15
F-1.375
sa(dp42
g2
I705
sg3
F95.75
sg4
I705
sg5
F-6.375
sg6
F7.0625
sg7
F0.0
sg8
F-0.3
sg9
F0.37
sg10
F11.72
sg11
F0.625
sg12
F8.3125
sg13
F-2.625
sg14
F0.1875
sg15
F-1.5
sa(dp43
g2
I739
sg3
F95.6875
sg4
I739
sg5
F-6.0
sg6
F7.375
sg7
F0.6875
sg8
F-1.26
sg9
F0.14
sg10
F6.41
sg11
F1.8125
sg12
F8.4375
sg13
F-0.625
sg14
F3.3125
sg15
F-1.4375
sa(dp44
g2
I774
sg3
F95.75
sg4
I773
sg5
F-6.75
sg6
F7.75
sg7
F0.0
sg8
F-0.99
sg9
F0.45
sg10
F11.57
sg11
F-0.0625
sg12
F8.125
sg13
F-3.3125
sg14
F3.1875
sg15
F-1.1875
sa(dp45
g2
I809
sg3
F95.8125
sg4
I809
sg5
F-6.6875
sg6
F7.75
sg7
F0.375
sg8
F-1.24
sg9
F0.0
sg10
F8.25
sg11
F-2.1875
sg12
F7.8125
sg13
F1.375
sg14
F2.5625
sg15
F-1.375
sa(dp46
g2
I844
sg3
F95.8125
sg4
I844
sg5
F-6.6875
sg6
F8.5625
sg7
F1.1875
sg8
F-1.43
sg9
F0.58
sg10
F9.89
sg11
F-1.375
sg12
F7.875
sg13
F-1.4375
sg14
F2.0625
sg15
F-1.5
sa(dp47
g2
I879
sg3
F95.875
sg4
I879
sg5
F-8.0625
sg6
F9.0
sg7
F0.5625
sg8
F-0.92
sg9
F-0.52
sg10
F11.01
sg11
F0.1875
sg12
F7.9375
sg13
F-0.875
sg14
F0.1875
sg15
F-1.5625
sa(dp48
g2
I914
sg3
F95.9375
sg4
I914
sg5
F-7.5
sg6
F8.6875
sg7
F2.0625
sg8
F-0.87
sg9
F0.26
sg10
F11.9
sg11
F-1.5625
sg12
F8.0
sg13
F-5.0625
sg14
F-2.9375
sg15
F-1.4375
sa(dp49
g2
I948
sg3
F96.0
sg4
I948
sg5
F-8.25
sg6
F7.25
sg7
F1.25
sg8
F-1.14
sg9
F-0.18
sg10
F15.2
sg11
F-1.3125
sg12
F8.0
sg13
F-6.0625
sg14
F-0.1875
sg15
F-1.375
sa(dp50
g2
I980
sg3
F96.0625
sg4
I982
sg5
F-9.375
sg6
F8.0
sg7
F2.0625
sg8
F-0.79
sg9
F-0.05
sg10
F10.72
sg11
F1.125
sg12
F8.0
sg13
F-0.9375
sg14
F-1.1875
sg15
F-1.3125
sa(dp51
g2
I989
sg3
F96.0625
sg4
I1018
sg5
F-9.0625
sg6
F7.5625
sg7
F3.875
sg8
F-0.52
sg9
F0.09
sg10
F9.82
sg11
F-6.3125
sg12
F3.125
sg13
F-2.3125
sg14
F83.6875
sg15
F-1.25
sa(dp52
g2
I989
sg3
F96.0
sg4
I1053
sg5
F-8.25
sg6
F10.0
sg7
F5.6875
sg8
F-0.9
sg9
F0.35
sg10
F6.63
sg11
F-10.75
sg12
F353.0625
sg13
F0.0625
sg14
F91.5
sg15
F-1.1875
sa(dp53
g2
I989
sg3
F95.9375
sg4
I1087
sg5
F-7.875
sg6
F12.5625
sg7
F-0.0625
sg8
F-0.67
sg9
F-0.13
sg10
F6.24
sg11
F-9.625
sg12
F343.9375
sg13
F-0.125
sg14
F94.25
sg15
F-1.125
sa(dp54
g2
I989
sg3
F95.9375
sg4
I1122
sg5
F-6.6875
sg6
F13.1875
sg7
F-1.875
sg8
F0.13
sg9
F-0.16
sg10
F9.29
sg11
F-7.0625
sg12
F333.875
sg13
F-1.5625
sg14
F88.0625
sg15
F-0.8125
sa(dp55
g2
I989
sg3
F95.9375
sg4
I1156
sg5
F-6.875
sg6
F12.0
sg7
F-2.1875
sg8
F0.1
sg9
F0.07
sg10
F8.48
sg11
F-6.75
sg12
F323.6875
sg13
F-1.125
sg14
F86.3125
sg15
F-0.625
sa(dp56
g2
I989
sg3
F96.0
sg4
I1190
sg5
F-5.0
sg6
F12.6875
sg7
F-1.75
sg8
F-0.23
sg9
F-1.08
sg10
F8.65
sg11
F-7.8125
sg12
F314.8125
sg13
F-1.6875
sg14
F74.5
sg15
F-0.5
sa(dp57
g2
I989
sg3
F95.8125
sg4
I1225
sg5
F-4.6875
sg6
F11.25
sg7
F-1.1875
sg8
F-0.85
sg9
F-1.06
sg10
F5.76
sg11
F-5.9375
sg12
F305.1875
sg13
F-2.875
sg14
F80.25
sg15
F-0.4375
sa(dp58
g2
I989
sg3
F95.75
sg4
I1259
sg5
F-3.5625
sg6
F11.75
sg7
F0.1875
sg8
F-0.42
sg9
F-0.51
sg10
F9.98
sg11
F-6.3125
sg12
F295.9375
sg13
F-3.1875
sg14
F83.6875
sg15
F-0.1875
sa(dp59
g2
I989
sg3
F95.6875
sg4
I1293
sg5
F-2.5625
sg6
F12.0
sg7
F0.875
sg8
F-0.6
sg9
F-0.89
sg10
F8.85
sg11
F-7.375
sg12
F285.875
sg13
F-3.5
sg14
F85.75
sg15
F0.0
sa(dp60
g2
I989
sg3
F95.5625
sg4
I1328
sg5
F-2.5625
sg6
F11.875
sg7
F0.5625
sg8
F-0.68
sg9
F-1.11
sg10
F8.65
sg11
F-7.125
sg12
F276.75
sg13
F-2.375
sg14
F84.625
sg15
F0.125
sa(dp61
g2
I990
sg3
F95.4375
sg4
I1362
sg5
F-1.0625
sg6
F11.375
sg7
F2.25
sg8
F-0.89
sg9
F-0.21
sg10
F10.74
sg11
F-5.875
sg12
F266.8125
sg13
F2.5
sg14
F84.0
sg15
F0.25
sa(dp62
g2
I1011
sg3
F95.3125
sg4
I1397
sg5
F0.0
sg6
F11.25
sg7
F4.6875
sg8
F-1.07
sg9
F-0.67
sg10
F10.43
sg11
F-2.5
sg12
F260.6875
sg13
F-3.3125
sg14
F19.4375
sg15
F0.125
sa(dp63
g2
I1047
sg3
F95.25
sg4
I1433
sg5
F-0.375
sg6
F10.6875
sg7
F1.6875
sg8
F-1.09
sg9
F0.32
sg10
F8.18
sg11
F-1.75
sg12
F260.0625
sg13
F0.6875
sg14
F-0.4375
sg15
F0.0
sa(dp64
g2
I1082
sg3
F95.25
sg4
I1467
sg5
F1.0
sg6
F10.6875
sg7
F1.1875
sg8
F-0.85
sg9
F-0.48
sg10
F9.23
sg11
F4.125
sg12
F260.625
sg13
F1.0625
sg14
F-6.0
sg15
F0.0
sa(dp65
g2
I1116
sg3
F95.25
sg4
I1501
sg5
F0.1875
sg6
F11.375
sg7
F-1.875
sg8
F-1.01
sg9
F0.75
sg10
F7.28
sg11
F1.875
sg12
F260.8125
sg13
F1.875
sg14
F-0.6875
sg15
F0.1875
sa(dp66
g2
I1151
sg3
F95.1875
sg4
I1536
sg5
F-0.5625
sg6
F10.875
sg7
F-2.5625
sg8
F-1.2
sg9
F0.33
sg10
F9.16
sg11
F-1.125
sg12
F260.4375
sg13
F1.875
sg14
F3.4375
sg15
F0.25
sa(dp67
g2
I1186
sg3
F95.3125
sg4
I1571
sg5
F-2.0
sg6
F11.0625
sg7
F-3.75
sg8
F-0.44
sg9
F-1.48
sg10
F10.51
sg11
F-1.625
sg12
F260.5625
sg13
F1.8125
sg14
F-1.3125
sg15
F0.0
sa(dp68
g2
I1220
sg3
F95.3125
sg4
I1605
sg5
F-2.75
sg6
F10.25
sg7
F-6.875
sg8
F-1.16
sg9
F-0.76
sg10
F8.93
sg11
F0.125
sg12
F260.875
sg13
F1.5625
sg14
F-1.625
sg15
F0.0
sa(dp69
g2
I1255
sg3
F95.3125
sg4
I1640
sg5
F-4.875
sg6
F10.1875
sg7
F-8.0
sg8
F-0.81
sg9
F-0.32
sg10
F11.45
sg11
F-2.4375
sg12
F260.6875
sg13
F3.5625
sg14
F0.75
sg15
F0.0
sa(dp70
g2
I1291
sg3
F95.5
sg4
I1676
sg5
F-7.375
sg6
F10.875
sg7
F-8.0
sg8
F-1.05
sg9
F0.0
sg10
F7.14
sg11
F-2.8125
sg12
F260.75
sg13
F1.75
sg14
F1.875
sg15
F0.0625
sa(dp71
g2
I1325
sg3
F95.4375
sg4
I1709
sg5
F-8.75
sg6
F10.875
sg7
F-9.875
sg8
F-0.89
sg9
F-0.46
sg10
F8.03
sg11
F-0.875
sg12
F260.625
sg13
F1.125
sg14
F0.3125
sg15
F0.0625
sa(dp72
g2
I1359
sg3
F95.375
sg4
I1744
sg5
F-10.75
sg6
F9.375
sg7
F-9.0625
sg8
F-1.03
sg9
F0.34
sg10
F8.99
sg11
F-1.375
sg12
F260.625
sg13
F1.5
sg14
F3.5
sg15
F0.0625
sa(dp73
g2
I1394
sg3
F95.375
sg4
I1779
sg5
F-13.375
sg6
F9.375
sg7
F-9.0625
sg8
F-1.48
sg9
F-0.05
sg10
F6.91
sg11
F-2.5
sg12
F260.8125
sg13
F4.375
sg14
F-2.8125
sg15
F0.0
sa(dp74
g2
I1429
sg3
F95.3125
sg4
I1814
sg5
F-14.5
sg6
F8.6875
sg7
F-6.75
sg8
F-0.92
sg9
F0.18
sg10
F8.21
sg11
F1.125
sg12
F261.25
sg13
F1.1875
sg14
F-1.4375
sg15
F-0.0625
sa(dp75
g2
I1464
sg3
F95.3125
sg4
I1849
sg5
F-16.875
sg6
F8.25
sg7
F-5.25
sg8
F-1.2
sg9
F0.58
sg10
F7.06
sg11
F2.75
sg12
F261.25
sg13
F2.875
sg14
F3.0625
sg15
F0.0625
sa(dp76
g2
I1499
sg3
F95.3125
sg4
I1884
sg5
F-16.875
sg6
F6.75
sg7
F-4.875
sg8
F-0.4
sg9
F0.42
sg10
F8.57
sg11
F-1.4375
sg12
F260.8125
sg13
F1.25
sg14
F1.6875
sg15
F0.125
sa(dp77
g2
I1533
sg3
F95.375
sg4
I1918
sg5
F-17.6875
sg6
F6.5
sg7
F-4.0625
sg8
F-0.75
sg9
F0.14
sg10
F8.69
sg11
F-2.3125
sg12
F260.9375
sg13
F3.625
sg14
F0.75
sg15
F0.0
sa(dp78
g2
I1568
sg3
F95.375
sg4
I1953
sg5
F-16.5625
sg6
F5.375
sg7
F-0.875
sg8
F-0.9
sg9
F-0.55
sg10
F8.82
sg11
F3.5
sg12
F261.0625
sg13
F-2.0625
sg14
F1.5
sg15
F-0.0625
sa(dp79
g2
I1602
sg3
F95.5
sg4
I1987
sg5
F-16.1875
sg6
F4.6875
sg7
F1.375
sg8
F-0.59
sg9
F-0.38
sg10
F9.28
sg11
F1.4375
sg12
F260.9375
sg13
F-0.5
sg14
F-1.5
sg15
F0.0
sa(dp80
g2
I1637
sg3
F95.5625
sg4
I2022
sg5
F-15.75
sg6
F5.0625
sg7
F1.0
sg8
F-0.77
sg9
F-0.71
sg10
F10.12
sg11
F1.6875
sg12
F261.1875
sg13
F-3.375
sg14
F-4.625
sg15
F0.0
sa(dp81
g2
I1671
sg3
F95.5625
sg4
I2056
sg5
F-13.1875
sg6
F4.6875
sg7
F3.0
sg8
F-1.08
sg9
F-0.73
sg10
F10.3
sg11
F0.5
sg12
F261.1875
sg13
F-3.5625
sg14
F-0.1875
sg15
F0.0625
sa(dp82
g2
I1707
sg3
F95.625
sg4
I2091
sg5
F-14.0625
sg6
F4.6875
sg7
F3.375
sg8
F-1.04
sg9
F0.2
sg10
F11.37
sg11
F2.3125
sg12
F261.125
sg13
F-2.375
sg14
F-3.5
sg15
F0.125
sa(dp83
g2
I1741
sg3
F95.5
sg4
I2125
sg5
F-12.25
sg6
F4.25
sg7
F1.375
sg8
F-1.14
sg9
F-0.13
sg10
F11.98
sg11
F0.4375
sg12
F261.25
sg13
F-4.1875
sg14
F-0.4375
sg15
F0.0625
sa(dp84
g2
I1775
sg3
F95.5
sg4
I2160
sg5
F-11.1875
sg6
F3.5625
sg7
F2.875
sg8
F-1.0
sg9
F-0.16
sg10
F10.81
sg11
F0.4375
sg12
F261.3125
sg13
F-1.5625
sg14
F-1.3125
sg15
F-0.0625
sa(dp85
g2
I1810
sg3
F95.5
sg4
I2195
sg5
F-11.5625
sg6
F4.25
sg7
F2.5625
sg8
F-0.82
sg9
F0.0
sg10
F10.29
sg11
F3.8125
sg12
F261.4375
sg13
F-2.5625
sg14
F-3.1875
sg15
F-0.0625
sa(dp86
g2
I1844
sg3
F95.5
sg4
I2229
sg5
F-10.0625
sg6
F4.25
sg7
F3.375
sg8
F-1.2
sg9
F-0.07
sg10
F10.14
sg11
F1.0
sg12
F261.4375
sg13
F-0.9375
sg14
F1.125
sg15
F0.0
sa(dp87
g2
I1880
sg3
F95.5
sg4
I2264
sg5
F-9.6875
sg6
F4.6875
sg7
F2.5625
sg8
F-0.92
sg9
F-0.19
sg10
F12.03
sg11
F-0.625
sg12
F261.1875
sg13
F0.0
sg14
F5.375
sg15
F-0.0625
sa(dp88
g2
I1915
sg3
F95.625
sg4
I2300
sg5
F-10.5
sg6
F5.0625
sg7
F1.75
sg8
F-0.73
sg9
F-0.08
sg10
F10.47
sg11
F-1.5625
sg12
F261.1875
sg13
F-2.4375
sg14
F0.875
sg15
F-0.3125
sa(dp89
g2
I1949
sg3
F95.6875
sg4
I2334
sg5
F-10.0625
sg6
F5.0625
sg7
F1.0
sg8
F-1.2
sg9
F-0.11
sg10
F11.2
sg11
F-0.6875
sg12
F261.1875
sg13
F-1.125
sg14
F-1.0
sg15
F-0.3125
sa(dp90
g2
I1984
sg3
F95.8125
sg4
I2369
sg5
F-11.0625
sg6
F4.25
sg7
F2.1875
sg8
F-1.21
sg9
F-0.57
sg10
F9.01
sg11
F-0.625
sg12
F261.125
sg13
F1.125
sg14
F-0.125
sg15
F-0.1875
sa(dp91
g2
I2021
sg3
F95.8125
sg4
I2406
sg5
F-11.875
sg6
F5.0625
sg7
F-0.0625
sg8
F-1.06
sg9
F-0.86
sg10
F9.27
sg11
F-1.25
sg12
F261.125
sg13
F-2.5
sg14
F0.375
sg15
F-0.125
sa(dp92
g2
I2039
sg3
F95.8125
sg4
I2424
sg5
F-11.75
sg6
F4.6875
sg7
F1.375
sg8
F0.45
sg9
F0.16
sg10
F9.74
sg11
F0.3125
sg12
F260.9375
sg13
F2.25
sg14
F3.0625
sg15
F-0.0625
sa(dp93
g2
I2040
sg3
F95.875
sg4
I2425
sg5
F-12.0625
sg6
F5.0625
sg7
F-0.5625
sg8
F-0.92
sg9
F-0.28
sg10
F9.17
sg11
F0.3125
sg12
F260.875
sg13
F-0.0625
sg14
F0.0625
sg15
F-0.0625
sa(dp94
g2
I2040
sg3
F95.875
sg4
I2425
sg5
F-12.0625
sg6
F4.25
sg7
F0.1875
sg8
F-1.01
sg9
F-0.28
sg10
F9.14
sg11
F0.1875
sg12
F261.0625
sg13
F-0.25
sg14
F0.0625
sg15
F-0.25
sa(dp95
g2
I2040
sg3
F95.9375
sg4
I2425
sg5
F-12.5
sg6
F3.875
sg7
F1.0
sg8
F-1.02
sg9
F-0.3
sg10
F9.18
sg11
F0.125
sg12
F261.25
sg13
F-0.125
sg14
F-0.125
sg15
F-0.4375
sa(dp96
g2
I2040
sg3
F95.9375
sg4
I2425
sg5
F-12.0625
sg6
F4.25
sg7
F0.5625
sg8
F-1.0
sg9
F-0.34
sg10
F9.18
sg11
F-0.0625
sg12
F261.4375
sg13
F-0.0625
sg14
F-0.0625
sg15
F-0.5625
sa(dp97
g2
I2040
sg3
F96.0
sg4
I2425
sg5
F-12.0625
sg6
F4.25
sg7
F1.375
sg8
F-1.01
sg9
F-0.33
sg10
F9.16
sg11
F0.0
sg12
F261.5625
sg13
F0.125
sg14
F-0.0625
sg15
F-0.6875
sa(dp98
g2
I2040
sg3
F96.0
sg4
I2425
sg5
F-12.0625
sg6
F4.6875
sg7
F-0.1875
sg8
F-1.01
sg9
F-0.33
sg10
F9.17
sg11
F-0.1875
sg12
F261.625
sg13
F0.125
sg14
F0.0625
sg15
F-0.75
sa(dp99
g2
I2040
sg3
F96.0
sg4
I2425
sg5
F-12.75
sg6
F4.6875
sg7
F1.0
sg8
F-1.0
sg9
F-0.32
sg10
F9.15
sg11
F0.0
sg12
F261.75
sg13
F-0.25
sg14
F0.0
sg15
F-0.875
sa(dp100
g2
I2040
sg3
F96.0625
sg4
I2425
sg5
F-11.375
sg6
F5.0625
sg7
F-0.1875
sg8
F-1.01
sg9
F-0.32
sg10
F9.2
sg11
F0.0
sg12
F261.8125
sg13
F0.125
sg14
F0.1875
sg15
F-0.9375
sa(dp101
g2
I2040
sg3
F96.0625
sg4
I2425
sg5
F-12.5
sg6
F4.6875
sg7
F-0.5625
sg8
F-1.01
sg9
F-0.33
sg10
F9.2
sg11
F0.0
sg12
F261.875
sg13
F0.125
sg14
F0.0
sg15
F-1.0
sa(dp102
g2
I2040
sg3
F96.0625
sg4
I2425
sg5
F-11.375
sg6
F4.6875
sg7
F1.0
sg8
F-1.01
sg9
F-0.35
sg10
F9.16
sg11
F-0.0625
sg12
F261.9375
sg13
F-0.0625
sg14
F0.125
sg15
F-1.0625
sa(dp103
g2
I2040
sg3
F96.0625
sg4
I2425
sg5
F-11.375
sg6
F4.6875
sg7
F0.5625
sg8
F-1.01
sg9
F-0.33
sg10
F9.13
sg11
F-0.0625
sg12
F262.0
sg13
F0.1875
sg14
F0.0
sg15
F-1.125
sa(dp104
g2
I2040
sg3
F96.0625
sg4
I2425
sg5
F-12.0625
sg6
F5.375
sg7
F1.0
sg8
F-0.97
sg9
F-0.33
sg10
F9.18
sg11
F0.0625
sg12
F262.0625
sg13
F0.25
sg14
F-0.0625
sg15
F-1.125
sa(dp105
g2
I2040
sg3
F96.0625
sg4
I2425
sg5
F-11.0
sg6
F4.6875
sg7
F0.5625
sg8
F-1.0
sg9
F-0.33
sg10
F9.18
sg11
F0.0
sg12
F262.125
sg13
F0.0
sg14
F0.1875
sg15
F-1.1875
sa(dp106
g2
I2040
sg3
F96.125
sg4
I2425
sg5
F-11.75
sg6
F5.0625
sg7
F-0.1875
sg8
F-0.99
sg9
F-0.33
sg10
F9.18
sg11
F0.125
sg12
F262.125
sg13
F0.25
sg14
F0.375
sg15
F-1.25
sa(dp107
g2
I2040
sg3
F96.125
sg4
I2425
sg5
F-11.375
sg6
F4.6875
sg7
F1.0
sg8
F-1.0
sg9
F-0.33
sg10
F9.16
sg11
F0.0
sg12
F262.1875
sg13
F0.0625
sg14
F0.0625
sg15
F-1.25
sa(dp108
g2
I2040
sg3
F96.125
sg4
I2425
sg5
F-11.0
sg6
F4.6875
sg7
F-0.1875
sg8
F-1.01
sg9
F-0.32
sg10
F9.15
sg11
F-0.0625
sg12
F262.25
sg13
F-0.0625
sg14
F-0.25
sg15
F-1.3125
sa(dp109
g2
I2040
sg3
F96.125
sg4
I2425
sg5
F-11.75
sg6
F5.0625
sg7
F-0.1875
sg8
F-1.0
sg9
F-0.34
sg10
F9.18
sg11
F-0.125
sg12
F262.25
sg13
F0.0
sg14
F-0.0625
sg15
F-1.3125
sa(dp110
g2
I2040
sg3
F96.125
sg4
I2425
sg5
F-12.5
sg6
F4.6875
sg7
F0.1875
sg8
F-1.0
sg9
F-0.34
sg10
F9.16
sg11
F0.125
sg12
F262.25
sg13
F0.0
sg14
F-0.1875
sg15
F-1.3125
sa(dp111
g2
I2040
sg3
F96.125
sg4
I2425
sg5
F-11.75
sg6
F4.6875
sg7
F0.5625
sg8
F-1.01
sg9
F-0.33
sg10
F9.17
sg11
F-0.0625
sg12
F262.25
sg13
F-0.125
sg14
F0.1875
sg15
F-1.3125
sa(dp112
g2
I2040
sg3
F96.125
sg4
I2425
sg5
F-12.0625
sg6
F4.25
sg7
F-0.1875
sg8
F-1.02
sg9
F-0.35
sg10
F9.17
sg11
F-0.0625
sg12
F262.25
sg13
F-0.125
sg14
F-0.0625
sg15
F-1.3125
sa(dp113
g2
I2040
sg3
F96.125
sg4
I2425
sg5
F-11.75
sg6
F5.0625
sg7
F-0.875
sg8
F-1.01
sg9
F-0.32
sg10
F9.17
sg11
F0.0625
sg12
F262.25
sg13
F-0.0625
sg14
F-0.0625
sg15
F-1.3125
sa(dp114
g2
I2040
sg3
F96.125
sg4
I2425
sg5
F-12.0625
sg6
F4.25
sg7
F-0.1875
sg8
F-1.0
sg9
F-0.33
sg10
F9.16
sg11
F0.0
sg12
F262.25
sg13
F0.1875
sg14
F0.0625
sg15
F-1.3125
sa.