(lp0
(dp1
S'theta'
p2
I0
sS'left_enc'
p3
I0
sS'euler_x'
p4
F2.9375
sS'y_delta'
p5
I0
sS'y'
p6
F0.0
sS'x'
p7
F0.0
sS'x_delta'
p8
I0
sS'right_enc'
p9
I0
sS'lr_delta'
p10
I0
sa(dp11
g2
I0
sg3
I0
sg4
F2.9375
sg5
I0
sg6
F0.0
sg7
F0.0
sg8
I0
sg9
I0
sg10
I0
sa(dp12
g2
I0
sg3
I0
sg4
F2.9375
sg5
I0
sg6
F0.0
sg7
F0.0
sg8
I0
sg9
I0
sg10
I0
sa(dp13
g2
I0
sg3
I0
sg4
F2.9375
sg5
I0
sg6
F0.0
sg7
F0.0
sg8
I0
sg9
I0
sg10
I0
sa(dp14
g2
I0
sg3
I0
sg4
F2.9375
sg5
I0
sg6
F0.0
sg7
F0.0
sg8
I0
sg9
I0
sg10
I0
sa(dp15
g2
I0
sg3
I0
sg4
F2.9375
sg5
I0
sg6
F0.0
sg7
F0.0
sg8
I0
sg9
I0
sg10
I0
sa(dp16
g2
I0
sg3
I0
sg4
F2.9375
sg5
I0
sg6
F0.0
sg7
F0.0
sg8
I0
sg9
I0
sg10
I0
sa(dp17
g2
I0
sg3
I0
sg4
F2.9375
sg5
I0
sg6
F0.5
sg7
F0.0
sg8
I1
sg9
I1
sg10
I-1
sa(dp18
g2
I0
sg3
I22
sg4
F3.0625
sg5
I22
sg6
F21.0
sg7
F0.0
sg8
I20
sg9
I21
sg10
I1
sa(dp19
g2
I0
sg3
I55
sg4
F3.5625
sg5
I33
sg6
F33.0
sg7
F0.0
sg8
I33
sg9
I54
sg10
I1
sa(dp20
g2
I0
sg3
I88
sg4
F3.125
sg5
I33
sg6
F33.5
sg7
F0.0
sg8
I34
sg9
I88
sg10
I0
sa(dp21
g2
I0
sg3
I119
sg4
F2.4375
sg5
I31
sg6
F31.0
sg7
F0.0
sg8
I31
sg9
I119
sg10
I0
sa(dp22
g2
I0
sg3
I150
sg4
F2.125
sg5
I31
sg6
F31.5
sg7
F0.0
sg8
I32
sg9
I151
sg10
I-1
sa(dp23
g2
I0
sg3
I182
sg4
F2.125
sg5
I32
sg6
F32.0
sg7
F0.0
sg8
I32
sg9
I183
sg10
I-1
sa(dp24
g2
I0
sg3
I215
sg4
F1.875
sg5
I33
sg6
F32.5
sg7
F0.0
sg8
I32
sg9
I215
sg10
I0
sa(dp25
g2
I0
sg3
I247
sg4
F1.8125
sg5
I32
sg6
F32.0
sg7
F0.0
sg8
I32
sg9
I247
sg10
I0
sa(dp26
g2
I0
sg3
I280
sg4
F1.75
sg5
I33
sg6
F33.0
sg7
F0.0
sg8
I33
sg9
I280
sg10
I0
sa(dp27
g2
I0
sg3
I314
sg4
F1.5
sg5
I34
sg6
F34.5
sg7
F0.0
sg8
I35
sg9
I315
sg10
I-1
sa(dp28
g2
I0
sg3
I347
sg4
F1.125
sg5
I33
sg6
F32.5
sg7
F0.0
sg8
I32
sg9
I347
sg10
I0
sa(dp29
g2
I0
sg3
I380
sg4
F1.3125
sg5
I33
sg6
F33.0
sg7
F0.0
sg8
I33
sg9
I380
sg10
I0
sa(dp30
g2
I0
sg3
I412
sg4
F1.25
sg5
I32
sg6
F32.0
sg7
F0.0
sg8
I32
sg9
I412
sg10
I0
sa(dp31
g2
I0
sg3
I444
sg4
F0.75
sg5
I32
sg6
F32.0
sg7
F0.0
sg8
I32
sg9
I444
sg10
I0
sa(dp32
g2
I0
sg3
I478
sg4
F0.6875
sg5
I34
sg6
F33.5
sg7
F0.0
sg8
I33
sg9
I477
sg10
I1
sa(dp33
g2
I0
sg3
I510
sg4
F0.75
sg5
I32
sg6
F32.5
sg7
F0.0
sg8
I33
sg9
I510
sg10
I0
sa(dp34
g2
I0
sg3
I541
sg4
F0.6875
sg5
I31
sg6
F31.5
sg7
F0.0
sg8
I32
sg9
I542
sg10
I-1
sa(dp35
g2
I0
sg3
I573
sg4
F1.0
sg5
I32
sg6
F31.0
sg7
F0.0
sg8
I30
sg9
I572
sg10
I1
sa(dp36
g2
F2.0
sg3
I604
sg4
F3.0
sg5
I31
sg6
F20.987207356436897
sg7
F0.7328897447235228
sg8
I11
sg9
I583
sg10
I21
sa(dp37
g2
F9.375
sg3
I635
sg4
F10.375
sg5
I31
sg6
F15.292971470257045
sg7
F2.524880910043886
sg8
I0
sg9
I583
sg10
I52
sa(dp38
g2
F17.75
sg3
I667
sg4
F18.75
sg5
I32
sg6
F14.762134267075018
sg7
F4.725398594917634
sg8
I-1
sg9
I582
sg10
I85
sa(dp39
g2
F25.0
sg3
I699
sg4
F26.0
sg5
I32
sg6
F14.50092332810272
sg7
F6.7618948995445285
sg8
I0
sg9
I582
sg10
I117
sa(dp40
g2
F33.0
sg3
I731
sg4
F34.0
sg5
I32
sg6
F13.418726936090879
sg7
F8.714227872544367
sg8
I0
sg9
I582
sg10
I149
sa(dp41
g2
F40.75
sg3
I763
sg4
F41.75
sg5
I32
sg6
F12.121036566636894
sg7
F10.44415973404521
sg8
I0
sg9
I582
sg10
I181
sa(dp42
g2
F48.375
sg3
I795
sg4
F49.375
sg5
I32
sg6
F10.628034678832595
sg7
F11.960137075532694
sg8
I0
sg9
I582
sg10
I213
sa(dp43
g2
F57.9375
sg3
I828
sg4
F58.9375
sg5
I33
sg6
F8.75892036470026
sg7
F13.983251197230175
sg8
I0
sg9
I582
sg10
I246
sa(dp44
g2
F65.0
sg3
I859
sg4
F66.0
sg5
I31
sg6
F6.550576226902177
sg7
F14.047773883984041
sg8
I0
sg9
I582
sg10
I277
sa(dp45
g2
F72.1875
sg3
I890
sg4
F73.1875
sg5
I31
sg6
F6.423952626303829
sg7
F19.99331970071514
sg8
I11
sg9
I593
sg10
I297
sa(dp46
g2
F73.875
sg3
I921
sg4
F74.875
sg5
I31
sg6
F8.470866108475713
sg7
F29.300075552330537
sg8
I30
sg9
I623
sg10
I298
sa(dp47
g2
F74.0625
sg3
I954
sg4
F75.0625
sg5
I33
sg6
F9.061406821091971
sg7
F31.73154434348678
sg8
I33
sg9
I656
sg10
I298
sa(dp48
g2
F73.875
sg3
I986
sg4
F74.875
sg5
I32
sg6
F8.887466081023698
sg7
F30.7410628745763
sg8
I32
sg9
I688
sg10
I298
sa(dp49
g2
F73.625
sg3
I1018
sg4
F74.625
sg5
I32
sg6
F9.02151430122889
sg7
F30.701991461674314
sg8
I32
sg9
I720
sg10
I298
sa(dp50
g2
F73.75
sg3
I1051
sg4
F74.75
sg5
I33
sg6
F9.234339985709271
sg7
F31.681650288902738
sg8
I33
sg9
I753
sg10
I298
sa(dp51
g2
F73.625
sg3
I1083
sg4
F74.625
sg5
I32
sg6
F9.02151430122889
sg7
F30.701991461674314
sg8
I32
sg9
I785
sg10
I298
sa(dp52
g2
F73.375
sg3
I1115
sg4
F74.375
sg5
I32
sg6
F9.155390764658792
sg7
F30.662335526609848
sg8
I32
sg9
I817
sg10
I298
sa(dp53
g2
F73.25
sg3
I1147
sg4
F74.25
sg5
I32
sg6
F9.222263790948617
sg7
F30.64228859876752
sg8
I32
sg9
I849
sg10
I298
sa(dp54
g2
F73.4375
sg3
I1179
sg4
F74.4375
sg5
I32
sg6
F8.97940761090559
sg7
F30.193049514039
sg8
I31
sg9
I880
sg10
I299
sa(dp55
g2
F73.625
sg3
I1210
sg4
F74.625
sg5
I31
sg6
F8.88055314027219
sg7
F30.22227284508565
sg8
I32
sg9
I912
sg10
I298
sa(dp56
g2
F73.375
sg3
I1242
sg4
F74.375
sg5
I32
sg6
F9.155390764658792
sg7
F30.662335526609848
sg8
I32
sg9
I944
sg10
I298
sa(dp57
g2
F73.5625
sg3
I1274
sg4
F74.5625
sg5
I32
sg6
F9.054999618903473
sg7
F30.692132247559112
sg8
I32
sg9
I976
sg10
I298
sa(dp58
g2
F73.75
sg3
I1306
sg4
F74.75
sg5
I32
sg6
F8.954511501293839
sg7
F30.72160028014811
sg8
I32
sg9
I1008
sg10
I298
sa(dp59
g2
F73.4375
sg3
I1338
sg4
F74.4375
sg5
I32
sg6
F8.97940761090559
sg7
F30.193049514039
sg8
I31
sg9
I1039
sg10
I299
sa(dp60
g2
F73.3125
sg3
I1370
sg4
F74.3125
sg5
I32
sg6
F9.188832744758086
sg7
F30.652330299487208
sg8
I32
sg9
I1071
sg10
I299
sa(dp61
g2
F73.5625
sg3
I1402
sg4
F74.5625
sg5
I32
sg6
F9.054999618903473
sg7
F30.692132247559112
sg8
I32
sg9
I1103
sg10
I299
sa(dp62
g2
F73.5625
sg3
I1434
sg4
F74.5625
sg5
I32
sg6
F9.054999618903473
sg7
F30.692132247559112
sg8
I32
sg9
I1135
sg10
I299
sa(dp63
g2
F73.375
sg3
I1465
sg4
F74.375
sg5
I31
sg6
F9.012337783960998
sg7
F30.183236534006568
sg8
I32
sg9
I1167
sg10
I298
sa(dp64
g2
F73.5
sg3
I1497
sg4
F74.5
sg5
I32
sg6
F9.088474161919029
sg7
F30.682236512486018
sg8
I32
sg9
I1199
sg10
I298
sa(dp65
g2
F73.3125
sg3
I1529
sg4
F74.3125
sg5
I32
sg6
F9.188832744758086
sg7
F30.652330299487208
sg8
I32
sg9
I1231
sg10
I298
sa(dp66
g2
F73.5625
sg3
I1562
sg4
F74.5625
sg5
I33
sg6
F9.19648398794884
sg7
F31.171696813927223
sg8
I32
sg9
I1263
sg10
I299
sa(dp67
g2
F73.6875
sg3
I1594
sg4
F74.6875
sg5
I32
sg6
F9.128456033876446
sg7
F31.191686239085964
sg8
I33
sg9
I1296
sg10
I298
sa(dp68
g2
F73.8125
sg3
I1627
sg4
F74.8125
sg5
I33
sg6
F9.19977516434712
sg7
F31.691704544335604
sg8
I33
sg9
I1329
sg10
I298
sa(dp69
g2
F73.75
sg3
I1660
sg4
F74.75
sg5
I33
sg6
F9.094425743501555
sg7
F31.201625284525424
sg8
I32
sg9
I1361
sg10
I299
sa(dp70
g2
F74.0
sg3
I1692
sg4
F75.0
sg5
I32
sg6
F8.820378359531178
sg7
F30.760379152323758
sg8
I32
sg9
I1393
sg10
I299
sa(dp71
g2
F73.8125
sg3
I1724
sg4
F74.8125
sg5
I32
sg6
F9.060384631553982
sg7
F31.21152720275476
sg8
I33
sg9
I1426
sg10
I298
sa(dp72
g2
F73.875
sg3
I1756
sg4
F74.875
sg5
I32
sg6
F8.887466081023698
sg7
F30.7410628745763
sg8
I32
sg9
I1458
sg10
I298
sa(dp73
g2
F73.6875
sg3
I1789
sg4
F74.6875
sg5
I33
sg6
F9.268893819013007
sg7
F31.6715583350719
sg8
I33
sg9
I1491
sg10
I298
sa(dp74
g2
F73.875
sg3
I1822
sg4
F74.875
sg5
I33
sg6
F9.026332738539693
sg7
F31.221391981991555
sg8
I32
sg9
I1523
sg10
I299
sa(dp75
g2
F73.4375
sg3
I1854
sg4
F74.4375
sg5
I32
sg6
F9.264468169981956
sg7
F31.151559022421193
sg8
I33
sg9
I1556
sg10
I298
sa(dp76
g2
F73.625
sg3
I1887
sg4
F74.625
sg5
I33
sg6
F9.162475462185592
sg7
F31.181710078262977
sg8
I32
sg9
I1588
sg10
I299
sa(dp77
g2
F73.625
sg3
I1913
sg4
F74.625
sg5
I26
sg6
F7.470941530705175
sg7
F25.42508667919904
sg8
I27
sg9
I1615
sg10
I298
sa(dp78
g2
F73.75
sg3
I1917
sg4
F74.75
sg5
I4
sg6
F1.1193139376617298
sg7
F3.8402000350185137
sg8
I4
sg9
I1619
sg10
I298
sa(dp79
g2
F73.75
sg3
I1917
sg4
F74.75
sg5
I0
sg6
F0.0
sg7
F0.0
sg8
I0
sg9
I1619
sg10
I298
sa(dp80
g2
F73.8125
sg3
I1917
sg4
F74.8125
sg5
I0
sg6
F0.0
sg7
F0.0
sg8
I0
sg9
I1619
sg10
I298
sa(dp81
g2
F73.875
sg3
I1917
sg4
F74.875
sg5
I0
sg6
F0.0
sg7
F0.0
sg8
I0
sg9
I1619
sg10
I298
sa(dp82
g2
F73.9375
sg3
I1917
sg4
F74.9375
sg5
I0
sg6
F0.0
sg7
F0.0
sg8
I0
sg9
I1619
sg10
I298
sa(dp83
g2
F73.9375
sg3
I1917
sg4
F74.9375
sg5
I0
sg6
F0.0
sg7
F0.0
sg8
I0
sg9
I1619
sg10
I298
sa(dp84
g2
F74.0
sg3
I1917
sg4
F75.0
sg5
I0
sg6
F0.0
sg7
F0.0
sg8
I0
sg9
I1619
sg10
I298
sa(dp85
g2
F74.0625
sg3
I1917
sg4
F75.0625
sg5
I0
sg6
F0.0
sg7
F0.0
sg8
I0
sg9
I1619
sg10
I298
sa(dp86
g2
F74.0625
sg3
I1917
sg4
F75.0625
sg5
I0
sg6
F0.0
sg7
F0.0
sg8
I0
sg9
I1619
sg10
I298
sa(dp87
g2
F74.0625
sg3
I1917
sg4
F75.0625
sg5
I0
sg6
F0.0
sg7
F0.0
sg8
I0
sg9
I1619
sg10
I298
sa(dp88
g2
F74.125
sg3
I1917
sg4
F75.125
sg5
I0
sg6
F0.0
sg7
F0.0
sg8
I0
sg9
I1619
sg10
I298
sa(dp89
g2
F74.125
sg3
I1917
sg4
F75.125
sg5
I0
sg6
F0.0
sg7
F0.0
sg8
I0
sg9
I1619
sg10
I298
sa(dp90
g2
F74.125
sg3
I1917
sg4
F75.125
sg5
I0
sg6
F0.0
sg7
F0.0
sg8
I0
sg9
I1619
sg10
I298
sa(dp91
g2
F74.125
sg3
I1917
sg4
F75.125
sg5
I0
sg6
F0.0
sg7
F0.0
sg8
I0
sg9
I1619
sg10
I298
sa(dp92
g2
F74.125
sg3
I1917
sg4
F75.125
sg5
I0
sg6
F0.0
sg7
F0.0
sg8
I0
sg9
I1619
sg10
I298
sa(dp93
g2
F74.125
sg3
I1917
sg4
F75.125
sg5
I0
sg6
F0.0
sg7
F0.0
sg8
I0
sg9
I1619
sg10
I298
sa(dp94
g2
F74.125
sg3
I1917
sg4
F75.125
sg5
I0
sg6
F0.0
sg7
F0.0
sg8
I0
sg9
I1619
sg10
I298
sa(dp95
g2
F74.125
sg3
I1917
sg4
F75.125
sg5
I0
sg6
F0.0
sg7
F0.0
sg8
I0
sg9
I1619
sg10
I298
sa(dp96
g2
F74.125
sg3
I1917
sg4
F75.125
sg5
I0
sg6
F0.0
sg7
F0.0
sg8
I0
sg9
I1619
sg10
I298
sa(dp97
g2
F74.125
sg3
I1917
sg4
F75.125
sg5
I0
sg6
F0.0
sg7
F0.0
sg8
I0
sg9
I1619
sg10
I298
sa(dp98
g2
F74.125
sg3
I1917
sg4
F75.125
sg5
I0
sg6
F0.0
sg7
F0.0
sg8
I0
sg9
I1619
sg10
I298
sa(dp99
g2
F74.125
sg3
I1917
sg4
F75.125
sg5
I0
sg6
F0.0
sg7
F0.0
sg8
I0
sg9
I1619
sg10
I298
sa(dp100
g2
F74.125
sg3
I1917
sg4
F75.125
sg5
I0
sg6
F0.0
sg7
F0.0
sg8
I0
sg9
I1619
sg10
I298
sa(dp101
g2
F74.125
sg3
I1917
sg4
F75.125
sg5
I0
sg6
F0.0
sg7
F0.0
sg8
I0
sg9
I1619
sg10
I298
sa(dp102
g2
F74.125
sg3
I1917
sg4
F75.125
sg5
I0
sg6
F0.0
sg7
F0.0
sg8
I0
sg9
I1619
sg10
I298
sa(dp103
g2
F74.125
sg3
I1917
sg4
F75.125
sg5
I0
sg6
F0.0
sg7
F0.0
sg8
I0
sg9
I1619
sg10
I298
sa(dp104
g2
F74.125
sg3
I1917
sg4
F75.125
sg5
I0
sg6
F0.0
sg7
F0.0
sg8
I0
sg9
I1619
sg10
I298
sa(dp105
g2
F74.125
sg3
I1917
sg4
F75.125
sg5
I0
sg6
F0.0
sg7
F0.0
sg8
I0
sg9
I1619
sg10
I298
sa(dp106
g2
F74.125
sg3
I1917
sg4
F75.125
sg5
I0
sg6
F0.0
sg7
F0.0
sg8
I0
sg9
I1619
sg10
I298
sa(dp107
g2
F74.125
sg3
I1917
sg4
F75.125
sg5
I0
sg6
F0.0
sg7
F0.0
sg8
I0
sg9
I1619
sg10
I298
sa(dp108
g2
F74.125
sg3
I1917
sg4
F75.125
sg5
I0
sg6
F0.0
sg7
F0.0
sg8
I0
sg9
I1619
sg10
I298
sa(dp109
g2
F74.125
sg3
I1917
sg4
F75.125
sg5
I0
sg6
F0.0
sg7
F0.0
sg8
I0
sg9
I1619
sg10
I298
sa.